;=============================================================================
; ExtensionOriginalExports.def
;
; Full original Extension.lib export-name set, generated from the stock
; Extension.lib import library.  Use this to create a clean original-ABI import
; library after the DLL has been linked with ExtensionAbiAliases.def.
;
; Generated symbols: 1766
;=============================================================================

LIBRARY Extension

EXPORTS
    ??0APlayerPawnExt@@QAE@ABV0@@Z
    ??0APlayerPawnExt@@QAE@XZ
    ??0XBorderWindow@@IAE@XZ
    ??0XBorderWindow@@QAE@ABV0@@Z
    ??0XBorderWindow@@QAE@PAVXWindow@@@Z
    ??0XButtonWindow@@IAE@XZ
    ??0XButtonWindow@@QAE@ABV0@@Z
    ??0XButtonWindow@@QAE@PAVXWindow@@@Z
    ??0XCheckboxWindow@@IAE@XZ
    ??0XCheckboxWindow@@QAE@ABV0@@Z
    ??0XCheckboxWindow@@QAE@PAVXWindow@@@Z
    ??0XClipRect@@QAE@AAU0@0@Z
    ??0XClipRect@@QAE@MMMM@Z
    ??0XClipRect@@QAE@MMMMMM@Z
    ??0XClipRect@@QAE@XZ
    ??0XClipWindow@@IAE@XZ
    ??0XClipWindow@@QAE@ABV0@@Z
    ??0XClipWindow@@QAE@PAVXWindow@@@Z
    ??0XComputerWindow@@IAE@XZ
    ??0XComputerWindow@@QAE@ABV0@@Z
    ??0XComputerWindow@@QAE@PAVXWindow@@@Z
    ??0XEditWindow@@IAE@XZ
    ??0XEditWindow@@QAE@ABV0@@Z
    ??0XEditWindow@@QAE@PAVXWindow@@@Z
    ??0XExtString@@QAE@ABV0@@Z
    ??0XExtString@@QAE@XZ
    ??0XExtensionObject@@QAE@ABV0@@Z
    ??0XExtensionObject@@QAE@XZ
    ??0XFlag@@IAE@XZ
    ??0XFlag@@QAE@ABV0@@Z
    ??0XFlag@@QAE@PAVXFlagBase@@VFName@@EH@Z
    ??0XFlagBase@@QAE@ABV0@@Z
    ??0XFlagBase@@QAE@XZ
    ??0XFlagBool@@IAE@XZ
    ??0XFlagBool@@QAE@ABV0@@Z
    ??0XFlagBool@@QAE@PAVXFlagBase@@VFName@@HH@Z
    ??0XFlagByte@@IAE@XZ
    ??0XFlagByte@@QAE@ABV0@@Z
    ??0XFlagByte@@QAE@PAVXFlagBase@@VFName@@EH@Z
    ??0XFlagFloat@@IAE@XZ
    ??0XFlagFloat@@QAE@ABV0@@Z
    ??0XFlagFloat@@QAE@PAVXFlagBase@@VFName@@MH@Z
    ??0XFlagInt@@IAE@XZ
    ??0XFlagInt@@QAE@ABV0@@Z
    ??0XFlagInt@@QAE@PAVXFlagBase@@VFName@@HH@Z
    ??0XFlagName@@IAE@XZ
    ??0XFlagName@@QAE@ABV0@@Z
    ??0XFlagName@@QAE@PAVXFlagBase@@VFName@@1H@Z
    ??0XFlagRotator@@IAE@XZ
    ??0XFlagRotator@@QAE@ABV0@@Z
    ??0XFlagRotator@@QAE@PAVXFlagBase@@VFName@@VFRotator@@H@Z
    ??0XFlagVector@@IAE@XZ
    ??0XFlagVector@@QAE@ABV0@@Z
    ??0XFlagVector@@QAE@PAVXFlagBase@@VFName@@VFVector@@H@Z
    ??0XGC@@QAE@AAV0@@Z
    ??0XGC@@QAE@XZ
    ??0XGameEngineExt@@QAE@ABV0@@Z
    ??0XGameEngineExt@@QAE@XZ
    ??0XInputExt@@QAE@ABV0@@Z
    ??0XInputExt@@QAE@XZ
    ??0XLargeTextWindow@@IAE@XZ
    ??0XLargeTextWindow@@QAE@ABV0@@Z
    ??0XLargeTextWindow@@QAE@PAVXWindow@@@Z
    ??0XListWindow@@IAE@XZ
    ??0XListWindow@@QAE@ABV0@@Z
    ??0XListWindow@@QAE@PAVXWindow@@@Z
    ??0XModalWindow@@IAE@XZ
    ??0XModalWindow@@QAE@ABV0@@Z
    ??0XModalWindow@@QAE@PAVXRootWindow@@@Z
    ??0XRadioBoxWindow@@IAE@XZ
    ??0XRadioBoxWindow@@QAE@ABV0@@Z
    ??0XRadioBoxWindow@@QAE@PAVXWindow@@@Z
    ??0XRootWindow@@IAE@XZ
    ??0XRootWindow@@QAE@ABV0@@Z
    ??0XRootWindow@@QAE@PAVAPlayerPawnExt@@@Z
    ??0XScaleManagerWindow@@IAE@XZ
    ??0XScaleManagerWindow@@QAE@ABV0@@Z
    ??0XScaleManagerWindow@@QAE@PAVXWindow@@@Z
    ??0XScaleWindow@@IAE@XZ
    ??0XScaleWindow@@QAE@ABV0@@Z
    ??0XScaleWindow@@QAE@PAVXWindow@@@Z
    ??0XScrollAreaWindow@@IAE@XZ
    ??0XScrollAreaWindow@@QAE@ABV0@@Z
    ??0XScrollAreaWindow@@QAE@PAVXWindow@@@Z
    ??0XTabGroupWindow@@IAE@XZ
    ??0XTabGroupWindow@@QAE@ABV0@@Z
    ??0XTabGroupWindow@@QAE@PAVXWindow@@@Z
    ??0XTextLogWindow@@IAE@XZ
    ??0XTextLogWindow@@QAE@ABV0@@Z
    ??0XTextLogWindow@@QAE@PAVXWindow@@@Z
    ??0XTextWindow@@IAE@XZ
    ??0XTextWindow@@QAE@ABV0@@Z
    ??0XTextWindow@@QAE@PAVXWindow@@@Z
    ??0XTileWindow@@IAE@XZ
    ??0XTileWindow@@QAE@ABV0@@Z
    ??0XTileWindow@@QAE@PAVXWindow@@@Z
    ??0XToggleWindow@@IAE@XZ
    ??0XToggleWindow@@QAE@ABV0@@Z
    ??0XToggleWindow@@QAE@PAVXWindow@@@Z
    ??0XViewportWindow@@IAE@XZ
    ??0XViewportWindow@@QAE@ABV0@@Z
    ??0XViewportWindow@@QAE@PAVXWindow@@@Z
    ??0XWindow@@IAE@XZ
    ??0XWindow@@QAE@ABV0@@Z
    ??0XWindow@@QAE@PAV0@@Z
    ??1APlayerPawnExt@@UAE@XZ
    ??1XBorderWindow@@UAE@XZ
    ??1XButtonWindow@@UAE@XZ
    ??1XCheckboxWindow@@UAE@XZ
    ??1XClipWindow@@UAE@XZ
    ??1XComputerWindow@@UAE@XZ
    ??1XEditWindow@@UAE@XZ
    ??1XExtString@@UAE@XZ
    ??1XExtensionObject@@UAE@XZ
    ??1XFlag@@UAE@XZ
    ??1XFlagBase@@UAE@XZ
    ??1XFlagBool@@UAE@XZ
    ??1XFlagByte@@UAE@XZ
    ??1XFlagFloat@@UAE@XZ
    ??1XFlagInt@@UAE@XZ
    ??1XFlagName@@UAE@XZ
    ??1XFlagRotator@@UAE@XZ
    ??1XFlagVector@@UAE@XZ
    ??1XGC@@UAE@XZ
    ??1XGameEngineExt@@UAE@XZ
    ??1XInputExt@@UAE@XZ
    ??1XLargeTextWindow@@UAE@XZ
    ??1XListWindow@@UAE@XZ
    ??1XModalWindow@@UAE@XZ
    ??1XRadioBoxWindow@@UAE@XZ
    ??1XRootWindow@@UAE@XZ
    ??1XScaleManagerWindow@@UAE@XZ
    ??1XScaleWindow@@UAE@XZ
    ??1XScrollAreaWindow@@UAE@XZ
    ??1XTabGroupWindow@@UAE@XZ
    ??1XTextLogWindow@@UAE@XZ
    ??1XTextWindow@@UAE@XZ
    ??1XTileWindow@@UAE@XZ
    ??1XToggleWindow@@UAE@XZ
    ??1XViewportWindow@@UAE@XZ
    ??1XWindow@@UAE@XZ
    ??2APlayerPawnExt@@SAPAXIPAVUObject@@VFName@@K@Z
    ??2APlayerPawnExt@@SAPAXIPAW4EInternal@@@Z
    ??2XBorderWindow@@SAPAXIPAVUObject@@VFName@@K@Z
    ??2XBorderWindow@@SAPAXIPAW4EInternal@@@Z
    ??2XButtonWindow@@SAPAXIPAVUObject@@VFName@@K@Z
    ??2XButtonWindow@@SAPAXIPAW4EInternal@@@Z
    ??2XCheckboxWindow@@SAPAXIPAVUObject@@VFName@@K@Z
    ??2XCheckboxWindow@@SAPAXIPAW4EInternal@@@Z
    ??2XClipWindow@@SAPAXIPAVUObject@@VFName@@K@Z
    ??2XClipWindow@@SAPAXIPAW4EInternal@@@Z
    ??2XComputerWindow@@SAPAXIPAVUObject@@VFName@@K@Z
    ??2XComputerWindow@@SAPAXIPAW4EInternal@@@Z
    ??2XEditWindow@@SAPAXIPAVUObject@@VFName@@K@Z
    ??2XEditWindow@@SAPAXIPAW4EInternal@@@Z
    ??2XExtString@@SAPAXIPAVUObject@@VFName@@K@Z
    ??2XExtString@@SAPAXIPAW4EInternal@@@Z
    ??2XExtensionObject@@SAPAXIPAVUObject@@VFName@@K@Z
    ??2XExtensionObject@@SAPAXIPAW4EInternal@@@Z
    ??2XFlag@@SAPAXIPAVUObject@@VFName@@K@Z
    ??2XFlag@@SAPAXIPAW4EInternal@@@Z
    ??2XFlagBase@@SAPAXIPAVUObject@@VFName@@K@Z
    ??2XFlagBase@@SAPAXIPAW4EInternal@@@Z
    ??2XFlagBool@@SAPAXIPAVUObject@@VFName@@K@Z
    ??2XFlagBool@@SAPAXIPAW4EInternal@@@Z
    ??2XFlagByte@@SAPAXIPAVUObject@@VFName@@K@Z
    ??2XFlagByte@@SAPAXIPAW4EInternal@@@Z
    ??2XFlagFloat@@SAPAXIPAVUObject@@VFName@@K@Z
    ??2XFlagFloat@@SAPAXIPAW4EInternal@@@Z
    ??2XFlagInt@@SAPAXIPAVUObject@@VFName@@K@Z
    ??2XFlagInt@@SAPAXIPAW4EInternal@@@Z
    ??2XFlagName@@SAPAXIPAVUObject@@VFName@@K@Z
    ??2XFlagName@@SAPAXIPAW4EInternal@@@Z
    ??2XFlagRotator@@SAPAXIPAVUObject@@VFName@@K@Z
    ??2XFlagRotator@@SAPAXIPAW4EInternal@@@Z
    ??2XFlagVector@@SAPAXIPAVUObject@@VFName@@K@Z
    ??2XFlagVector@@SAPAXIPAW4EInternal@@@Z
    ??2XGC@@SAPAXIPAVUObject@@VFName@@K@Z
    ??2XGC@@SAPAXIPAW4EInternal@@@Z
    ??2XGameEngineExt@@SAPAXIPAVUObject@@VFName@@K@Z
    ??2XGameEngineExt@@SAPAXIPAW4EInternal@@@Z
    ??2XInputExt@@SAPAXIPAVUObject@@VFName@@K@Z
    ??2XInputExt@@SAPAXIPAW4EInternal@@@Z
    ??2XLargeTextWindow@@SAPAXIPAVUObject@@VFName@@K@Z
    ??2XLargeTextWindow@@SAPAXIPAW4EInternal@@@Z
    ??2XListWindow@@SAPAXIPAVUObject@@VFName@@K@Z
    ??2XListWindow@@SAPAXIPAW4EInternal@@@Z
    ??2XModalWindow@@SAPAXIPAVUObject@@VFName@@K@Z
    ??2XModalWindow@@SAPAXIPAW4EInternal@@@Z
    ??2XRadioBoxWindow@@SAPAXIPAVUObject@@VFName@@K@Z
    ??2XRadioBoxWindow@@SAPAXIPAW4EInternal@@@Z
    ??2XRootWindow@@SAPAXIPAVUObject@@VFName@@K@Z
    ??2XRootWindow@@SAPAXIPAW4EInternal@@@Z
    ??2XScaleManagerWindow@@SAPAXIPAVUObject@@VFName@@K@Z
    ??2XScaleManagerWindow@@SAPAXIPAW4EInternal@@@Z
    ??2XScaleWindow@@SAPAXIPAVUObject@@VFName@@K@Z
    ??2XScaleWindow@@SAPAXIPAW4EInternal@@@Z
    ??2XScrollAreaWindow@@SAPAXIPAVUObject@@VFName@@K@Z
    ??2XScrollAreaWindow@@SAPAXIPAW4EInternal@@@Z
    ??2XTabGroupWindow@@SAPAXIPAVUObject@@VFName@@K@Z
    ??2XTabGroupWindow@@SAPAXIPAW4EInternal@@@Z
    ??2XTextLogWindow@@SAPAXIPAVUObject@@VFName@@K@Z
    ??2XTextLogWindow@@SAPAXIPAW4EInternal@@@Z
    ??2XTextWindow@@SAPAXIPAVUObject@@VFName@@K@Z
    ??2XTextWindow@@SAPAXIPAW4EInternal@@@Z
    ??2XTileWindow@@SAPAXIPAVUObject@@VFName@@K@Z
    ??2XTileWindow@@SAPAXIPAW4EInternal@@@Z
    ??2XToggleWindow@@SAPAXIPAVUObject@@VFName@@K@Z
    ??2XToggleWindow@@SAPAXIPAW4EInternal@@@Z
    ??2XViewportWindow@@SAPAXIPAVUObject@@VFName@@K@Z
    ??2XViewportWindow@@SAPAXIPAW4EInternal@@@Z
    ??2XWindow@@SAPAXIPAVUObject@@VFName@@K@Z
    ??2XWindow@@SAPAXIPAW4EInternal@@@Z
    ??4APlayerPawnExt@@QAEAAV0@ABV0@@Z
    ??4XBorderWindow@@QAEAAV0@ABV0@@Z
    ??4XButtonWindow@@QAEAAV0@ABV0@@Z
    ??4XCheckboxWindow@@QAEAAV0@ABV0@@Z
    ??4XClipRect@@QAEAAU0@ABU0@@Z
    ??4XClipWindow@@QAEAAV0@ABV0@@Z
    ??4XComputerWindow@@QAEAAV0@ABV0@@Z
    ??4XEditWindow@@QAEAAV0@ABV0@@Z
    ??4XExtString@@QAEAAV0@ABV0@@Z
    ??4XExtensionObject@@QAEAAV0@ABV0@@Z
    ??4XFlag@@QAEAAV0@ABV0@@Z
    ??4XFlagBase@@QAEAAV0@ABV0@@Z
    ??4XFlagBool@@QAEAAV0@ABV0@@Z
    ??4XFlagByte@@QAEAAV0@ABV0@@Z
    ??4XFlagFloat@@QAEAAV0@ABV0@@Z
    ??4XFlagInt@@QAEAAV0@ABV0@@Z
    ??4XFlagName@@QAEAAV0@ABV0@@Z
    ??4XFlagRotator@@QAEAAV0@ABV0@@Z
    ??4XFlagVector@@QAEAAV0@ABV0@@Z
    ??4XGC@@QAEAAV0@ABV0@@Z
    ??4XGameEngineExt@@QAEAAV0@ABV0@@Z
    ??4XInputExt@@QAEAAV0@ABV0@@Z
    ??4XLargeTextWindow@@QAEAAV0@ABV0@@Z
    ??4XListWindow@@QAEAAV0@ABV0@@Z
    ??4XModalWindow@@QAEAAV0@ABV0@@Z
    ??4XRadioBoxWindow@@QAEAAV0@ABV0@@Z
    ??4XRootWindow@@QAEAAV0@ABV0@@Z
    ??4XScaleManagerWindow@@QAEAAV0@ABV0@@Z
    ??4XScaleWindow@@QAEAAV0@ABV0@@Z
    ??4XScrollAreaWindow@@QAEAAV0@ABV0@@Z
    ??4XTabGroupWindow@@QAEAAV0@ABV0@@Z
    ??4XTextLogWindow@@QAEAAV0@ABV0@@Z
    ??4XTextWindow@@QAEAAV0@ABV0@@Z
    ??4XTileWindow@@QAEAAV0@ABV0@@Z
    ??4XToggleWindow@@QAEAAV0@ABV0@@Z
    ??4XViewportWindow@@QAEAAV0@ABV0@@Z
    ??4XWindow@@QAEAAV0@ABV0@@Z
    ?AcceleratorKeyPressed@XWindow@@UAEHG@Z
    ?ActivateButton@XButtonWindow@@QAEXW4EInputKey@@@Z
    ?ActivateEdit@XEditWindow@@AAEXXZ
    ?ActivateListRow@XListWindow@@AAEXXZ
    ?AddActivateTimer@XButtonWindow@@AAEXXZ
    ?AddActorRef@APlayerPawnExt@@QAEXPAVAActor@@@Z
    ?AddActorRef@XWindow@@QAEXPAVAActor@@@Z
    ?AddCharacterEvent@XComputerWindow@@IAEXGHHH@Z
    ?AddChild@XWindow@@AAEXPAV1@H@Z
    ?AddClearScreenEvent@XComputerWindow@@IAEXXZ
    ?AddEvent@XComputerWindow@@IAEHW4ECompWinEventTypes@@@Z
    ?AddFadeOutEvent@XComputerWindow@@IAEXM@Z
    ?AddFlag@XFlagBase@@QAEXPAVXFlag@@@Z
    ?AddGetCharEvent@XComputerWindow@@IAEXAAVFString@@H@Z
    ?AddGetInputEvent@XComputerWindow@@IAEXHAAVFString@@00@Z
    ?AddGraphicEvent@XComputerWindow@@IAEXPAVUTexture@@HHHHHH@Z
    ?AddLog@XTextLogWindow@@QAEXPBGVFColor@@@Z
    ?AddNewLineEvent@XComputerWindow@@IAEXXZ
    ?AddRow@XListWindow@@QAEHPBGH@Z
    ?AddSortColumn@XListWindow@@QAEXHHH@Z
    ?AddSoundEvent@XComputerWindow@@IAEXPAVUSound@@@Z
    ?AddTabGroupToTable@XModalWindow@@QAEXPAVXTabGroupWindow@@@Z
    ?AddTextColorEvent@XComputerWindow@@IAEXVFColor@@@Z
    ?AddTextPositionEvent@XComputerWindow@@IAEXHH@Z
    ?AddTextSoundEvent@XComputerWindow@@IAEXPAVUSound@@@Z
    ?AddTimer@XWindow@@QAEHMHHVFName@@@Z
    ?AddToBoundingBox@XScaleManagerWindow@@AAEXAAM0MMM@Z
    ?AddUndo@XEditWindow@@AAEXHPBGH0H@Z
    ?AddWindowToTables@XTabGroupWindow@@QAEXPAVXWindow@@@Z
    ?AppendText@XEditWindow@@UAEXPBG@Z
    ?AppendText@XExtString@@UAEXPBG@Z
    ?AppendText@XLargeTextWindow@@UAEXPBG@Z
    ?AppendText@XTextWindow@@UAEXPBG@Z
    ?AskParentForReconfigure@XWindow@@QAEXXZ
    ?AskParentToShowArea@XWindow@@QAEXMMMM@Z
    ?AutoHideScrollbars@XScrollAreaWindow@@QAEXH@Z
    ?BaseMarginsFromBorder@XBorderWindow@@QAEXH@Z
    ?BoxOptionSelected@XWindow@@UAEHPAV1@H@Z
    ?Browse@XGameEngineExt@@UAEHVFURL@@PBV?$TMap@VFString@@V1@@@AAVFString@@@Z
    ?BuildAcceleratorTable@XModalWindow@@QAEXXZ
    ?ButtonActivated@XScaleManagerWindow@@UAEHPAVXWindow@@@Z
    ?ButtonActivated@XWindow@@UAEHPAV1@@Z
    ?ButtonActivatedRight@XWindow@@UAEHPAV1@@Z
    ?CalcView@XViewportWindow@@UAEXPAVAActor@@0AAVFVector@@AAVFRotator@@@Z
    ?CalculateCharDisplayPosition@XComputerWindow@@IAEHAAH00@Z
    ?CalculateGraphicDisplayPosition@XComputerWindow@@IAEXH@Z
    ?CalculateTextWindowSize@XComputerWindow@@IAEXXZ
    ?ChangeButtonAppearance@XButtonWindow@@IAEXXZ
    ?ChangeConfiguration@XWindow@@AAEXXZ
    ?ChangeListSelection@XListWindow@@AAEXXZ
    ?ChangeScaleAttributes@XScaleWindow@@QAEXXZ
    ?ChangeScalePosition@XScaleWindow@@QAEXH@Z
    ?ChangeSelectRow@XListWindow@@AAEXHHAAH@Z
    ?ChangeStyle@XWindow@@QAEXXZ
    ?ChangeStyleTree@XWindow@@AAEXXZ
    ?ChangeText@XEditWindow@@AAEXXZ
    ?ChangeThumbPosition@XScaleWindow@@AAEXHHH@Z
    ?ChangeToggle@XToggleWindow@@QAEXXZ
    ?ChangeValueField@XScaleManagerWindow@@AAEXXZ
    ?CharToPixel@XGC@@QAEMPBGHHPAUXTextState@@@Z
    ?CheckFlag@XFlagBase@@QAEHVFName@@E@Z
    ?CheckFocusWindow@XWindow@@AAEXXZ
    ?CheckGrabbedWindow@XWindow@@AAEXXZ
    ?CheckName@XFlagBase@@AAEXAAVFName@@@Z
    ?CheckPosition@XListWindow@@AAEXPAUXListRowData@@@Z
    ?ChildAdded@XWindow@@UAEXPAV1@@Z
    ?ChildRemoved@XScaleManagerWindow@@UAEXPAVXWindow@@@Z
    ?ChildRemoved@XWindow@@UAEXPAV1@@Z
    ?ChildRequestedReconfiguration@XBorderWindow@@UAEHPAVXWindow@@@Z
    ?ChildRequestedReconfiguration@XClipWindow@@UAEHPAVXWindow@@@Z
    ?ChildRequestedReconfiguration@XRadioBoxWindow@@UAEHPAVXWindow@@@Z
    ?ChildRequestedReconfiguration@XRootWindow@@UAEHPAVXWindow@@@Z
    ?ChildRequestedReconfiguration@XScaleManagerWindow@@UAEHPAVXWindow@@@Z
    ?ChildRequestedReconfiguration@XScrollAreaWindow@@UAEHPAVXWindow@@@Z
    ?ChildRequestedReconfiguration@XTabGroupWindow@@UAEHPAVXWindow@@@Z
    ?ChildRequestedReconfiguration@XTileWindow@@UAEHPAVXWindow@@@Z
    ?ChildRequestedReconfiguration@XWindow@@UAEHPAV1@@Z
    ?ChildRequestedShowArea@XClipWindow@@UAEXPAVXWindow@@MMMM@Z
    ?ChildRequestedShowArea@XWindow@@UAEXPAV1@MMMM@Z
    ?ChildRequestedVisibilityChange@XClipWindow@@UAEXPAVXWindow@@H@Z
    ?ChildRequestedVisibilityChange@XRadioBoxWindow@@UAEXPAVXWindow@@H@Z
    ?ChildRequestedVisibilityChange@XScaleManagerWindow@@UAEXPAVXWindow@@H@Z
    ?ChildRequestedVisibilityChange@XScrollAreaWindow@@UAEXPAVXWindow@@H@Z
    ?ChildRequestedVisibilityChange@XTabGroupWindow@@UAEXPAVXWindow@@H@Z
    ?ChildRequestedVisibilityChange@XTileWindow@@UAEXPAVXWindow@@H@Z
    ?ChildRequestedVisibilityChange@XWindow@@UAEXPAV1@H@Z
    ?ClampChildPosition@XClipWindow@@AAEXAAM0MM@Z
    ?ClampMousePosition@XRootWindow@@AAEXXZ
    ?ClampUndo@XEditWindow@@AAEXXZ
    ?CleanUp@XBorderWindow@@UAEXXZ
    ?CleanUp@XButtonWindow@@UAEXXZ
    ?CleanUp@XCheckboxWindow@@UAEXXZ
    ?CleanUp@XClipWindow@@UAEXXZ
    ?CleanUp@XComputerWindow@@UAEXXZ
    ?CleanUp@XEditWindow@@UAEXXZ
    ?CleanUp@XGC@@SAXXZ
    ?CleanUp@XLargeTextWindow@@UAEXXZ
    ?CleanUp@XListWindow@@UAEXXZ
    ?CleanUp@XModalWindow@@UAEXXZ
    ?CleanUp@XRadioBoxWindow@@UAEXXZ
    ?CleanUp@XRootWindow@@UAEXXZ
    ?CleanUp@XScaleManagerWindow@@UAEXXZ
    ?CleanUp@XScaleWindow@@UAEXXZ
    ?CleanUp@XScrollAreaWindow@@UAEXXZ
    ?CleanUp@XTabGroupWindow@@UAEXXZ
    ?CleanUp@XTextLogWindow@@UAEXXZ
    ?CleanUp@XTextWindow@@UAEXXZ
    ?CleanUp@XTileWindow@@UAEXXZ
    ?CleanUp@XToggleWindow@@UAEXXZ
    ?CleanUp@XViewportWindow@@UAEXXZ
    ?CleanUp@XWindow@@UAEXXZ
    ?ClearAcceleratorTable@XModalWindow@@QAEXXZ
    ?ClearAllEnumerations@XScaleWindow@@QAEXXZ
    ?ClearHotKeyString@XListWindow@@AAEXXZ
    ?ClearLine@XComputerWindow@@QAEXH@Z
    ?ClearLog@XTextLogWindow@@QAEXXZ
    ?ClearScreen@XComputerWindow@@QAEXXZ
    ?ClearTextChangedFlag@XEditWindow@@QAEXXZ
    ?ClearUndo@XEditWindow@@QAEXXZ
    ?ClearZ@XGC@@QAEXXZ
    ?ClearZBuffer@XViewportWindow@@QAEXH@Z
    ?ClipAttributesChanged@XScrollAreaWindow@@UAEHPAVXWindow@@HHHH@Z
    ?ClipAttributesChanged@XWindow@@UAEHPAV1@HHHH@Z
    ?ClipListGenerate@XRootWindow@@AAEXPAVXWindow@@AAV?$TArray@UXClipRect@@@@@Z
    ?ClipListInit@XRootWindow@@AAEXAAUXClipRect@@AAV?$TArray@UXClipRect@@@@@Z
    ?ClipListSubtract@XRootWindow@@AAEXAAUXClipRect@@AAV?$TArray@UXClipRect@@@@@Z
    ?ClipPositionChanged@XScrollAreaWindow@@UAEHPAVXWindow@@HH@Z
    ?ClipPositionChanged@XWindow@@UAEHPAV1@HH@Z
    ?ClipTile@XGC@@IAEXPAVUTexture@@AAM1111111HH@Z
    ?ClipTree@XWindow@@AAEXXZ
    ?ColToX@XEditWindow@@IAEMHH@Z
    ?ComputeChildConfig@XScaleManagerWindow@@AAEXPAVXWindow@@AAMM@Z
    ?ComputeChildOffset@XScaleManagerWindow@@AAEXPAVXWindow@@AAMM@Z
    ?ComputeChildSizes@XScrollAreaWindow@@AAEXHMPAMHM0@Z
    ?ComputeChildSizes@XTileWindow@@AAEXHAAMH0@Z
    ?ComputeCursorConfig@XEditWindow@@AAEXH@Z
    ?ComputeFieldSize@XListWindow@@AAEXPAVXGC@@PAUXListRowData@@H@Z
    ?ComputeLineHeight@XLargeTextWindow@@AAEMPAVXGC@@@Z
    ?ComputeRowSize@XListWindow@@AAEXXZ
    ?ComputeSelectArea@XEditWindow@@AAEXXZ
    ?ComputeTabGroupLocation@XTabGroupWindow@@QAEHXZ
    ?ComputeTextureSize@XCheckboxWindow@@AAEXAAM00@Z
    ?ComputeTextureSize@XScaleWindow@@AAEXPAVUTexture@@MMMAAM1@Z
    ?ComputeThumbConfig@XScaleWindow@@AAEXXZ
    ?ComputeWindowBorders@XBorderWindow@@AAEXXZ
    ?ConfigurationChanged@XBorderWindow@@UAEXXZ
    ?ConfigurationChanged@XClipWindow@@UAEXXZ
    ?ConfigurationChanged@XEditWindow@@UAEXXZ
    ?ConfigurationChanged@XLargeTextWindow@@UAEXXZ
    ?ConfigurationChanged@XRadioBoxWindow@@UAEXXZ
    ?ConfigurationChanged@XRootWindow@@UAEXXZ
    ?ConfigurationChanged@XScaleManagerWindow@@UAEXXZ
    ?ConfigurationChanged@XScaleWindow@@UAEXXZ
    ?ConfigurationChanged@XScrollAreaWindow@@UAEXXZ
    ?ConfigurationChanged@XTabGroupWindow@@UAEXXZ
    ?ConfigurationChanged@XTextLogWindow@@UAEXXZ
    ?ConfigurationChanged@XTileWindow@@UAEXXZ
    ?ConfigurationChanged@XWindow@@UAEXXZ
    ?Configure@XWindow@@QAEXMMMM@Z
    ?ConfigureChild@XWindow@@QAEXMMMM@Z
    ?ConstructRootWindow@APlayerPawnExt@@QAEXXZ
    ?ConvertCoordinates@XWindow@@SAXPAV1@MM0PAM1@Z
    ?ConvertPixelPos@XGC@@IAEXAAPBGAAHAAMHHPAUXTextState@@@Z
    ?ConvertScriptString@XWindow@@IAEPBGPBG@Z
    ?ConvertVectorToCoordinates@XRootWindow@@UAEHVFVector@@PAM1@Z
    ?ConvertVectorToCoordinates@XViewportWindow@@UAEHVFVector@@PAM1@Z
    ?ConvertVectorToCoordinates@XWindow@@UAEHVFVector@@PAM1@Z
    ?Copy@XEditWindow@@QAEXXZ
    ?CopyGC@XGC@@QAEXAAV1@@Z
    ?CopyToString@XEditWindow@@AAEXAAVFString@@PBGH@Z
    ?CopyToTextBuffer@XEditWindow@@IAEXHH@Z
    ?CreateInputControl@XComputerWindow@@IAEXH@Z
    ?CreateIterator@XFlagBase@@QAEHW4EFlagType@@@Z
    ?CreateNewWindow@XWindow@@SAPAV1@PAVUClass@@PAV1@H@Z
    ?CreateRow@XListWindow@@AAEPAUXListRowData@@PBGH@Z
    ?CreateTextWindow@XComputerWindow@@IAEXXZ
    ?CursorRequested@XBorderWindow@@UAEPAVUTexture@@PAVXWindow@@MMAAM1AAVFColor@@PAPAV2@@Z
    ?CursorRequested@XEditWindow@@UAEPAVUTexture@@PAVXWindow@@MMAAM1AAVFColor@@PAPAV2@@Z
    ?CursorRequested@XWindow@@UAEPAVUTexture@@PAV1@MMAAM1AAVFColor@@PAPAV2@@Z
    ?Cut@XEditWindow@@QAEXXZ
    ?DeleteAllFlags@XFlagBase@@QAEXXZ
    ?DeleteAllRows@XListWindow@@QAEXXZ
    ?DeleteChar@XEditWindow@@UAEXHH@Z
    ?DeleteExpiredFlags@XFlagBase@@QAEXH@Z
    ?DeleteFlag@XFlagBase@@QAEHVFName@@E@Z
    ?DeleteRow@XListWindow@@QAEXH@Z
    ?DeleteText@XEditWindow@@AAEXHH@Z
    ?DeleteWindowAttributes@XWindow@@IAEXPAVUClass@@@Z
    ?DescendantAdded@XRadioBoxWindow@@UAEXPAVXWindow@@@Z
    ?DescendantAdded@XWindow@@UAEXPAV1@@Z
    ?DescendantRemoved@XModalWindow@@UAEXPAVXWindow@@@Z
    ?DescendantRemoved@XRadioBoxWindow@@UAEXPAVXWindow@@@Z
    ?DescendantRemoved@XRootWindow@@UAEXPAVXWindow@@@Z
    ?DescendantRemoved@XScrollAreaWindow@@UAEXPAVXWindow@@@Z
    ?DescendantRemoved@XWindow@@UAEXPAV1@@Z
    ?Destroy@APlayerPawnExt@@UAEXXZ
    ?Destroy@XExtensionObject@@UAEXXZ
    ?Destroy@XFlag@@UAEXXZ
    ?Destroy@XFlagBase@@UAEXXZ
    ?Destroy@XGC@@UAEXXZ
    ?Destroy@XGameEngineExt@@UAEXXZ
    ?Destroy@XRootWindow@@UAEXXZ
    ?Destroy@XWindow@@UAEXXZ
    ?DestroyAllChildren@XWindow@@QAEXXZ
    ?DestroyAllWindows@XRootWindow@@SAXXZ
    ?DestroyIterator@XFlagBase@@QAEXH@Z
    ?DestroyWindow@XWindow@@QAEXXZ
    ?Disable@XWindow@@QAEXXZ
    ?Draw@XBorderWindow@@UAEXPAVXGC@@@Z
    ?Draw@XButtonWindow@@UAEXPAVXGC@@@Z
    ?Draw@XCheckboxWindow@@UAEXPAVXGC@@@Z
    ?Draw@XComputerWindow@@UAEXPAVXGC@@@Z
    ?Draw@XEditWindow@@UAEXPAVXGC@@@Z
    ?Draw@XLargeTextWindow@@UAEXPAVXGC@@@Z
    ?Draw@XListWindow@@UAEXPAVXGC@@@Z
    ?Draw@XScaleWindow@@UAEXPAVXGC@@@Z
    ?Draw@XTextLogWindow@@UAEXPAVXGC@@@Z
    ?Draw@XTextWindow@@UAEXPAVXGC@@@Z
    ?Draw@XViewportWindow@@UAEXPAVXGC@@@Z
    ?Draw@XWindow@@UAEXPAVXGC@@@Z
    ?DrawActor@XGC@@QAEXPAVAActor@@HHHMMPAVUTexture@@@Z
    ?DrawBorders@XGC@@QAEXMMMMMMMMPAVUTexture@@00000000HH@Z
    ?DrawBox@XGC@@QAEXMMMMMMMPAVUTexture@@@Z
    ?DrawChar@XGC@@IAEXPAVUFont@@GAAVFPlane@@AAEMMPAM3@Z
    ?DrawDisplayBuffer@XComputerWindow@@IAEXPAVXGC@@@Z
    ?DrawIcon@XGC@@QAEXMMPAVUTexture@@@Z
    ?DrawIconPattern@XGC@@QAEXMMMMMMMMPAVUTexture@@@Z
    ?DrawPattern@XGC@@QAEXMMMMMMPAVUTexture@@@Z
    ?DrawRawBackground@XRootWindow@@AAEXPAVXGC@@PAVUTexture@@VFColor@@@Z
    ?DrawScaleTexture@XScaleWindow@@AAEXPAVXGC@@PAVUTexture@@MMMMHEVFColor@@M211MMMMMMMM@Z
    ?DrawScaledIcon@XGC@@QAEXMMMMPAVUTexture@@@Z
    ?DrawStretchedIcon@XGC@@QAEXMMMMPAVUTexture@@@Z
    ?DrawStretchedTexture@XGC@@QAEXMMMMMMMMPAVUTexture@@@Z
    ?DrawText@XGC@@QAEXMMMMPBG@Z
    ?DrawTextChar@XGC@@QAEHAAM0PAUXTextState@@AAPBGAAH@Z
    ?DrawTextLine@XGC@@QAEXMMPAUXTextState@@PBGH@Z
    ?DrawTexture@XGC@@QAEXMMMMMMPAVUTexture@@@Z
    ?DrawTile@XGC@@IAEXPAVUTexture@@MMMMMMMMHH@Z
    ?DrawTree@XWindow@@AAEXPAVUCanvas@@PAVUTexture@@MHH@Z
    ?EditActivated@XComputerWindow@@UAEHPAVXWindow@@H@Z
    ?EditActivated@XWindow@@UAEHPAV1@H@Z
    ?Enable@XWindow@@QAEXXZ
    ?EnableAutoExpandColumns@XListWindow@@QAEXH@Z
    ?EnableAutoRepeat@XButtonWindow@@QAEXHMM@Z
    ?EnableAutoSort@XListWindow@@QAEXH@Z
    ?EnableDrawing@XGC@@QAEXH@Z
    ?EnableEditing@XEditWindow@@QAEXH@Z
    ?EnableHotKeys@XListWindow@@QAEXH@Z
    ?EnableMasking@XGC@@QAEXH@Z
    ?EnableModulation@XGC@@QAEXH@Z
    ?EnableMultiSelect@XListWindow@@QAEXH@Z
    ?EnablePositionalSound@XRootWindow@@QAEXH@Z
    ?EnableRendering@XRootWindow@@QAEXH@Z
    ?EnableResizing@XBorderWindow@@QAEXH@Z
    ?EnableRightMouseClick@XButtonWindow@@QAEXH@Z
    ?EnableScrolling@XScrollAreaWindow@@QAEXHH@Z
    ?EnableSingleLineEditing@XEditWindow@@QAEXH@Z
    ?EnableSmoothing@XGC@@QAEXH@Z
    ?EnableSnapToUnits@XClipWindow@@QAEXH@Z
    ?EnableSpecialText@XGC@@QAEXH@Z
    ?EnableSpecialText@XWindow@@QAEXH@Z
    ?EnableStretchedScale@XScaleWindow@@QAEXH@Z
    ?EnableTextAsAccelerator@XTextWindow@@QAEXH@Z
    ?EnableTranslucency@XGC@@QAEXH@Z
    ?EnableTranslucentText@XGC@@QAEXH@Z
    ?EnableTranslucentText@XWindow@@QAEXH@Z
    ?EnableUppercaseOnly@XEditWindow@@QAEXH@Z
    ?EnableViewport@XViewportWindow@@QAEXH@Z
    ?EnableWordWrap@XComputerWindow@@QAEXH@Z
    ?EnableWordWrap@XGC@@QAEXH@Z
    ?EnableWrapping@XTileWindow@@QAEXH@Z
    ?EndOfWord@XEditWindow@@AAEHH@Z
    ?ExpandColumnByField@XListWindow@@AAEHPAUXListRowData@@H@Z
    ?ExtendRow@XListWindow@@AAEXPAUXListRowData@@@Z
    ?FadeOutText@XComputerWindow@@IAEXM@Z
    ?FieldConvertToString@XListWindow@@AAEPBGEPBGM@Z
    ?FieldConvertToValue@XListWindow@@AAEMEPBG@Z
    ?FillParent@XTileWindow@@QAEXH@Z
    ?FillRow@XListWindow@@AAEHPAUXListRowData@@PBG@Z
    ?FilterChar@XEditWindow@@UAEHAAG@Z
    ?FilterString@XEditWindow@@AAEHPBGAAVFString@@@Z
    ?FindActor@APlayerPawnExt@@AAEHPAVAActor@@@Z
    ?FindFlag@XFlagBase@@AAEHPAVXFlag@@AAPAPAV2@@Z
    ?FindName@XFlagBase@@AAEPAVXFlag@@AAVFName@@EAAPAPAV2@@Z
    ?FindRowByKey@XListWindow@@QAEHG@Z
    ?FindRowData@XListWindow@@AAEHPAUXListRowData@@PAH@Z
    ?FindWindow@XWindow@@QAEPAV1@MMPAM0@Z
    ?FindWindowByPoint@XWindow@@QAEPAV1@MMPAM0@Z
    ?FocusEnteredDescendant@XWindow@@UAEXPAV1@@Z
    ?FocusEnteredWindow@XButtonWindow@@UAEXXZ
    ?FocusEnteredWindow@XWindow@@UAEXXZ
    ?FocusLeftDescendant@XWindow@@UAEXPAV1@@Z
    ?FocusLeftWindow@XButtonWindow@@UAEXXZ
    ?FocusLeftWindow@XWindow@@UAEXXZ
    ?ForceChildSize@XClipWindow@@QAEXHH@Z
    ?FreeQueuedBuffer@XComputerWindow@@IAEXXZ
    ?GenerateLines@XLargeTextWindow@@AAEXPAVXGC@@AAUXTextParams@@AAV?$TArray@UXTextRowData@@@@AAMM@Z
    ?GeneratePolyFlags@XGC@@AAEXXZ
    ?GenerateSnapshot@XRootWindow@@QAEPAVUTexture@@PAV2@HHH@Z
    ?GenerateStyle@XGC@@AAEXXZ
    ?GetAcceleratorKey@XWindow@@QAEGXZ
    ?GetAcceleratorWindow@XModalWindow@@QAEPAVXWindow@@G@Z
    ?GetAlignments@XGC@@QAEXPAW4EHAlign@@PAW4EVAlign@@@Z
    ?GetBackground@XWindow@@QAEPAVUTexture@@XZ
    ?GetBackgroundSmoothing@XWindow@@QAEHXZ
    ?GetBackgroundStretching@XWindow@@QAEHXZ
    ?GetBackgroundStyle@XWindow@@QAEEXZ
    ?GetBool@XFlagBase@@QAEHVFName@@AAH@Z
    ?GetBottomChild@XWindow@@QAEPAV1@H@Z
    ?GetButtons@XScrollAreaWindow@@QAEXPAPAVXButtonWindow@@000@Z
    ?GetByte@XFlagBase@@QAEHVFName@@AAE@Z
    ?GetCanvas@XGC@@QAEPAVUCanvas@@XZ
    ?GetChar@XComputerWindow@@QAEXAAVFString@@H@Z
    ?GetCharSize@XGC@@SAXPAVUFont@@GPAH1@Z
    ?GetChild@XClipWindow@@QAEPAVXWindow@@XZ
    ?GetChildPosition@XClipWindow@@QAEXPAH0@Z
    ?GetChildPreferredSize@XClipWindow@@AAEXPAVXWindow@@HMHM@Z
    ?GetChildUnits@XClipWindow@@AAEXPAVXWindow@@AAM1@Z
    ?GetClientData@XListWindow@@QAEHH@Z
    ?GetClientObject@XWindow@@QAEPAVUObject@@XZ
    ?GetClipPreferredSize@XClipWindow@@AAEXPAVXWindow@@HAAMH1@Z
    ?GetClipRect@XGC@@QAE?AUXClipRect@@XZ
    ?GetClipWindow@XScrollAreaWindow@@QAEPAVXClipWindow@@XZ
    ?GetColorByte@XGC@@IAEHAAPBGAAE0@Z
    ?GetColumnAlignment@XListWindow@@QAE?AW4EHAlign@@H@Z
    ?GetColumnColor@XListWindow@@QAE?AVFColor@@H@Z
    ?GetColumnFont@XListWindow@@QAEPAVUFont@@H@Z
    ?GetColumnTitle@XListWindow@@QAEPBGH@Z
    ?GetColumnType@XListWindow@@QAE?AW4EColumnType@@H@Z
    ?GetColumnWidth@XListWindow@@QAEMH@Z
    ?GetCurrentModal@XRootWindow@@QAEPAVXModalWindow@@XZ
    ?GetCursorPos@XWindow@@QAEXPAM0@Z
    ?GetEnabledToggle@XRadioBoxWindow@@QAEPAVXToggleWindow@@XZ
    ?GetExpiration@XFlagBase@@QAEHVFName@@E@Z
    ?GetField@XListWindow@@QAEPBGHH@Z
    ?GetFieldMargins@XListWindow@@QAEXPAM0@Z
    ?GetFieldValue@XListWindow@@QAEMHH@Z
    ?GetFlag@XFlagBase@@QAEPAVXFlag@@VFName@@E@Z
    ?GetFloat@XFlagBase@@QAEHVFName@@AAM@Z
    ?GetFocusRow@XListWindow@@QAEHXZ
    ?GetFocusWindow@XWindow@@QAEPAV1@XZ
    ?GetFontHeight@XGC@@QAEMH@Z
    ?GetFonts@XGC@@QAEXPAPAVUFont@@0@Z
    ?GetGC@XWindow@@QAEPAVXGC@@XZ
    ?GetHigherSibling@XWindow@@QAEPAV1@H@Z
    ?GetHorizontalAlignment@XGC@@QAE?AW4EHAlign@@XZ
    ?GetInput@XComputerWindow@@QAEXHAAVFString@@00@Z
    ?GetInsertionPoint@XEditWindow@@QAEHXZ
    ?GetInt@XFlagBase@@QAEHVFName@@AAH@Z
    ?GetLine@XGC@@IAEPBGAAUXTextState@@MAAPBGPBGAAMAAH@Z
    ?GetLowerSibling@XWindow@@QAEPAV1@H@Z
    ?GetModalWindow@XWindow@@QAEPAVXModalWindow@@XZ
    ?GetMouseWindow@XRootWindow@@QAEPAVXWindow@@PAVXModalWindow@@PAM1@Z
    ?GetName@XFlagBase@@QAEHVFName@@AAV2@@Z
    ?GetNextChar@XGC@@IAEGAAPBGAAUXTextState@@0@Z
    ?GetNextFlag@XFlagBase@@QAEHHPAVFName@@PAW4EFlagType@@@Z
    ?GetNumColumns@XListWindow@@QAEHXZ
    ?GetNumRows@XListWindow@@QAEHXZ
    ?GetNumSelectedRows@XListWindow@@QAEHXZ
    ?GetNumTicks@XScaleWindow@@QAEHXZ
    ?GetPageSize@XListWindow@@QAEHXZ
    ?GetParent@XWindow@@QAEPAV1@XZ
    ?GetPlayerPawn@XWindow@@QAEPAVAPlayerPawnExt@@XZ
    ?GetPolyFlags@XGC@@QAEKXZ
    ?GetRenderer@XViewportWindow@@AAEPAVURenderBase@@XZ
    ?GetRootCursorPos@XRootWindow@@QAEXPAM0@Z
    ?GetRootPlayerPawn@XRootWindow@@QAEPAVAPlayerPawnExt@@XZ
    ?GetRootWindow@XWindow@@QAEPAVXRootWindow@@XZ
    ?GetRotator@XFlagBase@@QAEHVFName@@AAVFRotator@@@Z
    ?GetScrollManagers@XScrollAreaWindow@@QAEXPAPAVXScaleManagerWindow@@0@Z
    ?GetScrollbars@XScrollAreaWindow@@QAEXPAPAVXScaleWindow@@0@Z
    ?GetSelectedArea@XEditWindow@@QAEXPAH0@Z
    ?GetSelectedRow@XListWindow@@QAEHXZ
    ?GetStyle@XGC@@QAEEXZ
    ?GetTabGroupWindow@XWindow@@QAEPAVXTabGroupWindow@@XZ
    ?GetText@XExtString@@QAEPBGXZ
    ?GetText@XTextWindow@@QAEPBGXZ
    ?GetTextColor@XGC@@QAE?AVFColor@@XZ
    ?GetTextColor@XWindow@@QAE?AVFColor@@XZ
    ?GetTextExtent@XGC@@QAEXMAAM0PBG@Z
    ?GetTextExtent@XLargeTextWindow@@AAEXAAV?$TArray@UXTextRowData@@@@AAM11@Z
    ?GetTextLine@XGC@@QAEHPBGPAUXTextState@@HMPAPBG1PAHPAM@Z
    ?GetTextVSpacing@XGC@@QAEMXZ
    ?GetThrottle@XComputerWindow@@QAEMXZ
    ?GetThumbSpan@XScaleWindow@@QAEHXZ
    ?GetTickOffset@XWindow@@QAEMXZ
    ?GetTickPosition@XScaleWindow@@QAEHXZ
    ?GetTileColor@XGC@@QAE?AVFColor@@XZ
    ?GetTileColor@XWindow@@QAE?AVFColor@@XZ
    ?GetToggle@XToggleWindow@@QAEHXZ
    ?GetTopChild@XWindow@@QAEPAV1@H@Z
    ?GetUnitSize@XClipWindow@@QAEXPAH000@Z
    ?GetValue@XFlag@@UAEXPAX@Z
    ?GetValue@XFlagBool@@QAEHXZ
    ?GetValue@XFlagBool@@UAEXPAX@Z
    ?GetValue@XFlagByte@@QAEEXZ
    ?GetValue@XFlagByte@@UAEXPAX@Z
    ?GetValue@XFlagFloat@@QAEMXZ
    ?GetValue@XFlagFloat@@UAEXPAX@Z
    ?GetValue@XFlagInt@@QAEHXZ
    ?GetValue@XFlagInt@@UAEXPAX@Z
    ?GetValue@XFlagName@@QAE?AVFName@@XZ
    ?GetValue@XFlagName@@UAEXPAX@Z
    ?GetValue@XFlagRotator@@QAE?AVFRotator@@XZ
    ?GetValue@XFlagRotator@@UAEXPAX@Z
    ?GetValue@XFlagVector@@QAE?AVFVector@@XZ
    ?GetValue@XFlagVector@@UAEXPAX@Z
    ?GetValue@XScaleWindow@@QAEMXZ
    ?GetValueString@XScaleWindow@@QAEPAGXZ
    ?GetValues@XScaleWindow@@QAEXPAM0@Z
    ?GetVector@XFlagBase@@QAEHVFName@@AAVFVector@@@Z
    ?GetVerticalAlignment@XGC@@QAE?AW4EVAlign@@XZ
    ?GetWindowAttributes@XWindow@@IAEPAUXWindowAttributes@@PAVUClass@@@Z
    ?GetWindowsTickOffset@XRootWindow@@SAMH@Z
    ?GrabKeyboardEvents@XRootWindow@@QAEXXZ
    ?GrabMouse@XWindow@@QAEXXZ
    ?GrabMouseEvents@XRootWindow@@QAEXXZ
    ?HandleButtons@XRootWindow@@MAEHW4EInputKey@@W4EInputAction@@@Z
    ?HandleKeyboard@XRootWindow@@MAEHG@Z
    ?HandleMouse@XRootWindow@@MAEHMM@Z
    ?HandleVirtualKeyboard@XRootWindow@@MAEHW4EInputKey@@W4EInputAction@@H@Z
    ?HasArea@XClipRect@@QAEHXZ
    ?HasTextChanged@XEditWindow@@QAEHXZ
    ?Hide@XWindow@@QAEXXZ
    ?HideColumn@XListWindow@@QAEXHH@Z
    ?IndexToRowId@XListWindow@@QAEHH@Z
    ?Init@XBorderWindow@@UAEXPAVXWindow@@@Z
    ?Init@XButtonWindow@@UAEXPAVXWindow@@@Z
    ?Init@XCheckboxWindow@@UAEXPAVXWindow@@@Z
    ?Init@XClipWindow@@UAEXPAVXWindow@@@Z
    ?Init@XComputerWindow@@UAEXPAVXWindow@@@Z
    ?Init@XEditWindow@@UAEXPAVXWindow@@@Z
    ?Init@XGameEngineExt@@UAEXXZ
    ?Init@XLargeTextWindow@@UAEXPAVXWindow@@@Z
    ?Init@XListWindow@@UAEXPAVXWindow@@@Z
    ?Init@XModalWindow@@UAEXPAVXWindow@@@Z
    ?Init@XRadioBoxWindow@@UAEXPAVXWindow@@@Z
    ?Init@XRootWindow@@UAEXPAVAPlayerPawnExt@@@Z
    ?Init@XRootWindow@@UAEXPAVXWindow@@@Z
    ?Init@XScaleManagerWindow@@UAEXPAVXWindow@@@Z
    ?Init@XScaleWindow@@UAEXPAVXWindow@@@Z
    ?Init@XScrollAreaWindow@@UAEXPAVXWindow@@@Z
    ?Init@XTabGroupWindow@@UAEXPAVXWindow@@@Z
    ?Init@XTextLogWindow@@UAEXPAVXWindow@@@Z
    ?Init@XTextWindow@@UAEXPAVXWindow@@@Z
    ?Init@XTileWindow@@UAEXPAVXWindow@@@Z
    ?Init@XToggleWindow@@UAEXPAVXWindow@@@Z
    ?Init@XViewportWindow@@UAEXPAVXWindow@@@Z
    ?Init@XWindow@@UAEXPAV1@@Z
    ?InitColumn@XListWindow@@AAEXAAUXListColData@@H@Z
    ?InitRootWindow@APlayerPawnExt@@QAEXXZ
    ?InitWindow@XWindow@@QAEXXZ
    ?InitializeWindows@XRootWindow@@AAEXXZ
    ?InsertRow@XListWindow@@AAEXPAUXListRowData@@@Z
    ?InsertText@XEditWindow@@UAEHPBGHH@Z
    ?InternalConstructor@APlayerPawnExt@@SAXPAX@Z
    ?InternalConstructor@XBorderWindow@@SAXPAX@Z
    ?InternalConstructor@XButtonWindow@@SAXPAX@Z
    ?InternalConstructor@XCheckboxWindow@@SAXPAX@Z
    ?InternalConstructor@XClipWindow@@SAXPAX@Z
    ?InternalConstructor@XComputerWindow@@SAXPAX@Z
    ?InternalConstructor@XEditWindow@@SAXPAX@Z
    ?InternalConstructor@XExtString@@SAXPAX@Z
    ?InternalConstructor@XExtensionObject@@SAXPAX@Z
    ?InternalConstructor@XFlag@@SAXPAX@Z
    ?InternalConstructor@XFlagBase@@SAXPAX@Z
    ?InternalConstructor@XFlagBool@@SAXPAX@Z
    ?InternalConstructor@XFlagByte@@SAXPAX@Z
    ?InternalConstructor@XFlagFloat@@SAXPAX@Z
    ?InternalConstructor@XFlagInt@@SAXPAX@Z
    ?InternalConstructor@XFlagName@@SAXPAX@Z
    ?InternalConstructor@XFlagRotator@@SAXPAX@Z
    ?InternalConstructor@XFlagVector@@SAXPAX@Z
    ?InternalConstructor@XGC@@SAXPAX@Z
    ?InternalConstructor@XGameEngineExt@@SAXPAX@Z
    ?InternalConstructor@XInputExt@@SAXPAX@Z
    ?InternalConstructor@XLargeTextWindow@@SAXPAX@Z
    ?InternalConstructor@XListWindow@@SAXPAX@Z
    ?InternalConstructor@XModalWindow@@SAXPAX@Z
    ?InternalConstructor@XRadioBoxWindow@@SAXPAX@Z
    ?InternalConstructor@XRootWindow@@SAXPAX@Z
    ?InternalConstructor@XScaleManagerWindow@@SAXPAX@Z
    ?InternalConstructor@XScaleWindow@@SAXPAX@Z
    ?InternalConstructor@XScrollAreaWindow@@SAXPAX@Z
    ?InternalConstructor@XTabGroupWindow@@SAXPAX@Z
    ?InternalConstructor@XTextLogWindow@@SAXPAX@Z
    ?InternalConstructor@XTextWindow@@SAXPAX@Z
    ?InternalConstructor@XTileWindow@@SAXPAX@Z
    ?InternalConstructor@XToggleWindow@@SAXPAX@Z
    ?InternalConstructor@XViewportWindow@@SAXPAX@Z
    ?InternalConstructor@XWindow@@SAXPAX@Z
    ?Intersect@XClipRect@@QAEXAAU1@@Z
    ?Intersect@XClipRect@@QAEXMMMM@Z
    ?Intersect@XGC@@QAEXAAUXClipRect@@@Z
    ?Intersect@XGC@@QAEXMMMM@Z
    ?InvalidateTreeConfiguration@XWindow@@QAEXXZ
    ?InvokeComputerFadeOutCompleted@XComputerWindow@@QAEXXZ
    ?InvokeComputerInputFinished@XComputerWindow@@QAEXAAVFString@@0@Z
    ?InvokeComputerStart@XComputerWindow@@QAEXXZ
    ?InvokeSensitivityChange@XWindow@@AAEXH@Z
    ?InvokeTimers@XWindow@@AAEXM@Z
    ?InvokeVisibilityChange@XWindow@@AAEXH@Z
    ?InvokeWindowReady@XRootWindow@@AAEXPAVXWindow@@@Z
    ?IsActorValid@APlayerPawnExt@@QAEHPAVAActor@@@Z
    ?IsActorValid@XWindow@@QAEHPAVAActor@@@Z
    ?IsAutoExpandColumnsEnabled@XListWindow@@QAEHXZ
    ?IsAutoSortEnabled@XListWindow@@QAEHXZ
    ?IsBufferFlushed@XComputerWindow@@QAEHXZ
    ?IsColumnHidden@XListWindow@@QAEHH@Z
    ?IsColumnValid@XListWindow@@AAEHH@Z
    ?IsCurrentModal@XModalWindow@@QAEHXZ
    ?IsDescendant@XScaleManagerWindow@@AAEHPAVXWindow@@@Z
    ?IsDrawingEnabled@XGC@@QAEHXZ
    ?IsEditingEnabled@XEditWindow@@QAEHXZ
    ?IsFocusWindow@XWindow@@QAEHXZ
    ?IsHotKeyValid@XListWindow@@AAEHG@Z
    ?IsKeyDown@XWindow@@QAEHH@Z
    ?IsKeyboardGrabbed@XRootWindow@@QAEHXZ
    ?IsMaskingEnabled@XGC@@QAEHXZ
    ?IsModulationEnabled@XGC@@QAEHXZ
    ?IsMouseButton@XRootWindow@@QAEHW4EInputKey@@@Z
    ?IsMouseGrabbed@XRootWindow@@QAEHXZ
    ?IsMultiSelectEnabled@XListWindow@@QAEHXZ
    ?IsPaused@XComputerWindow@@QAEHXZ
    ?IsPointInWindow@XWindow@@QAEHMM@Z
    ?IsPositionalSoundEnabled@XRootWindow@@QAEHXZ
    ?IsRenderingEnabled@XRootWindow@@QAEHXZ
    ?IsRowSelected@XListWindow@@QAEHH@Z
    ?IsSelectable@XWindow@@QAEHXZ
    ?IsSensitive@XWindow@@QAEHH@Z
    ?IsSingleLineEditingEnabled@XEditWindow@@QAEHXZ
    ?IsSmoothingEnabled@XGC@@QAEHXZ
    ?IsSpecialTextEnabled@XGC@@QAEHXZ
    ?IsSpecialTextEnabled@XWindow@@QAEHXZ
    ?IsTranslucencyEnabled@XGC@@QAEHXZ
    ?IsTranslucentTextEnabled@XGC@@QAEHXZ
    ?IsTranslucentTextEnabled@XWindow@@QAEHXZ
    ?IsTraversable@XWindow@@QAEHH@Z
    ?IsVisible@XWindow@@QAEHH@Z
    ?IsWordWrapEnabled@XGC@@QAEHXZ
    ?Key@XGameEngineExt@@UAEHPAVUViewport@@W4EInputKey@@@Z
    ?Key@XInputExt@@QAEHW4EInputKey@@@Z
    ?Key@XRootWindow@@QAEHW4EInputKey@@@Z
    ?KeyPressed@XEditWindow@@UAEHG@Z
    ?KeyPressed@XListWindow@@UAEHG@Z
    ?KeyPressed@XModalWindow@@UAEHG@Z
    ?KeyPressed@XWindow@@UAEHG@Z
    ?KillAllChildren@XWindow@@IAEXXZ
    ?ListRowActivated@XWindow@@UAEHPAV1@H@Z
    ?ListSelectionChanged@XWindow@@UAEHPAV1@HH@Z
    ?LockMouse@XRootWindow@@QAEXHH@Z
    ?LockWindow@XWindow@@QAEXXZ
    ?Lower@XWindow@@QAEXXZ
    ?MakeAcceleratorTableDirty@XWindow@@QAEXXZ
    ?MakeAreaDirty@XLargeTextWindow@@IAEXHHH@Z
    ?MakeHeightsEqual@XTileWindow@@QAEXH@Z
    ?MakeLinesDirty@XLargeTextWindow@@IAEXXZ
    ?MakeWidthsEqual@XTileWindow@@QAEXH@Z
    ?ModifyRow@XListWindow@@QAEXHPBG@Z
    ?MouseButtonPressed@XBorderWindow@@UAEHMMW4EInputKey@@H@Z
    ?MouseButtonPressed@XButtonWindow@@UAEHMMW4EInputKey@@H@Z
    ?MouseButtonPressed@XEditWindow@@UAEHMMW4EInputKey@@H@Z
    ?MouseButtonPressed@XListWindow@@UAEHMMW4EInputKey@@H@Z
    ?MouseButtonPressed@XScaleWindow@@UAEHMMW4EInputKey@@H@Z
    ?MouseButtonPressed@XScrollAreaWindow@@UAEHMMW4EInputKey@@H@Z
    ?MouseButtonPressed@XToggleWindow@@UAEHMMW4EInputKey@@H@Z
    ?MouseButtonPressed@XWindow@@UAEHMMW4EInputKey@@H@Z
    ?MouseButtonReleased@XBorderWindow@@UAEHMMW4EInputKey@@H@Z
    ?MouseButtonReleased@XButtonWindow@@UAEHMMW4EInputKey@@H@Z
    ?MouseButtonReleased@XEditWindow@@UAEHMMW4EInputKey@@H@Z
    ?MouseButtonReleased@XListWindow@@UAEHMMW4EInputKey@@H@Z
    ?MouseButtonReleased@XScaleWindow@@UAEHMMW4EInputKey@@H@Z
    ?MouseButtonReleased@XToggleWindow@@UAEHMMW4EInputKey@@H@Z
    ?MouseButtonReleased@XWindow@@UAEHMMW4EInputKey@@H@Z
    ?MouseDelta@XGameEngineExt@@UAEXPAVUViewport@@KMM@Z
    ?MouseEnteredWindow@XWindow@@UAEXXZ
    ?MouseGrabLost@XWindow@@UAEXPAV1@@Z
    ?MouseLeftWindow@XWindow@@UAEXXZ
    ?MouseMoved@XBorderWindow@@UAEXMM@Z
    ?MouseMoved@XButtonWindow@@UAEXMM@Z
    ?MouseMoved@XEditWindow@@UAEXMM@Z
    ?MouseMoved@XListWindow@@UAEXMM@Z
    ?MouseMoved@XScaleWindow@@UAEXMM@Z
    ?MouseMoved@XWindow@@UAEXMM@Z
    ?MousePosition@XGameEngineExt@@UAEXPAVUViewport@@KMM@Z
    ?Move@XWindow@@QAEXMM@Z
    ?MoveFocus@XWindow@@QAEPAV1@W4EMove@@H@Z
    ?MoveFocusDown@XWindow@@QAEPAV1@XZ
    ?MoveFocusLeft@XWindow@@QAEPAV1@XZ
    ?MoveFocusRight@XWindow@@QAEPAV1@XZ
    ?MoveFocusUp@XWindow@@QAEPAV1@XZ
    ?MoveInsertionPoint@XEditWindow@@QAEXW4EMoveInsert@@H@Z
    ?MoveOrigin@XClipRect@@QAEXMM@Z
    ?MoveRow@XListWindow@@QAEXW4EMoveList@@HHH@Z
    ?MoveTabGroup@XWindow@@QAEPAV1@W4EMove@@@Z
    ?MoveTabGroupNext@XWindow@@QAEPAV1@XZ
    ?MoveTabGroupPrev@XWindow@@QAEPAV1@XZ
    ?MoveThumb@XScaleWindow@@QAEXW4EMoveThumb@@@Z
    ?MoveToRow@XListWindow@@AAEXPAUXListRowData@@HHHHH@Z
    ?NextWord@XEditWindow@@AAEHH@Z
    ?PaintWindows@XRootWindow@@QAEXPAVUCanvas@@@Z
    ?ParentRequestedGranularity@XLargeTextWindow@@UAEXAAM0@Z
    ?ParentRequestedGranularity@XListWindow@@UAEXAAM0@Z
    ?ParentRequestedGranularity@XTextWindow@@UAEXAAM0@Z
    ?ParentRequestedGranularity@XTileWindow@@UAEXAAM0@Z
    ?ParentRequestedGranularity@XWindow@@UAEXAAM0@Z
    ?ParentRequestedPreferredSize@XBorderWindow@@UAEXHAAMH0@Z
    ?ParentRequestedPreferredSize@XCheckboxWindow@@UAEXHAAMH0@Z
    ?ParentRequestedPreferredSize@XClipWindow@@UAEXHAAMH0@Z
    ?ParentRequestedPreferredSize@XEditWindow@@UAEXHAAMH0@Z
    ?ParentRequestedPreferredSize@XLargeTextWindow@@UAEXHAAMH0@Z
    ?ParentRequestedPreferredSize@XListWindow@@UAEXHAAMH0@Z
    ?ParentRequestedPreferredSize@XRadioBoxWindow@@UAEXHAAMH0@Z
    ?ParentRequestedPreferredSize@XScaleManagerWindow@@UAEXHAAMH0@Z
    ?ParentRequestedPreferredSize@XScaleWindow@@UAEXHAAMH0@Z
    ?ParentRequestedPreferredSize@XScrollAreaWindow@@UAEXHAAMH0@Z
    ?ParentRequestedPreferredSize@XTabGroupWindow@@UAEXHAAMH0@Z
    ?ParentRequestedPreferredSize@XTextWindow@@UAEXHAAMH0@Z
    ?ParentRequestedPreferredSize@XTileWindow@@UAEXHAAMH0@Z
    ?ParentRequestedPreferredSize@XWindow@@UAEXHAAMH0@Z
    ?ParseLine@XGC@@IAEHPBGUXTextState@@0MPAPBGPAU2@PAHPAM@Z
    ?Paste@XEditWindow@@QAEXXZ
    ?PasteFromTextBuffer@XEditWindow@@IAEXHH@Z
    ?Pause@XComputerWindow@@QAEXM@Z
    ?PauseLog@XTextLogWindow@@QAEXH@Z
    ?PixelToChar@XGC@@QAEHPBGMHPAUXTextState@@@Z
    ?PixelToTick@XScaleWindow@@AAEHM@Z
    ?PlayEditSound@XEditWindow@@QAEXPAVUSound@@MM@Z
    ?PlayListSound@XListWindow@@QAEXPAVUSound@@MM@Z
    ?PlayScaleSound@XScaleWindow@@QAEXPAVUSound@@MM@Z
    ?PlaySound@XWindow@@QAEXPAVUSound@@MM@Z
    ?PlaySound@XWindow@@QAEXPAVUSound@@MMMM@Z
    ?PlaySoundLater@XComputerWindow@@QAEXPAVUSound@@@Z
    ?PlaySoundNow@XComputerWindow@@IAEXPAVUSound@@@Z
    ?PopGC@XGC@@QAEXH@Z
    ?PopGC@XGC@@QAEXXZ
    ?PosToRowCol@XEditWindow@@IAEXHPAH0@Z
    ?PosToXY@XEditWindow@@IAEXHPAM0@Z
    ?PostDraw@XViewportWindow@@UAEXPAVXGC@@@Z
    ?PostDraw@XWindow@@UAEXPAVXGC@@@Z
    ?PostRender@XRootWindow@@QAEXPAVUCanvas@@@Z
    ?PostRenderWindows@APlayerPawnExt@@UAEXPAVUCanvas@@@Z
    ?PreDestroy@XWindow@@IAEXXZ
    ?PreProcess@XInputExt@@UAEHW4EInputKey@@W4EInputAction@@M@Z
    ?PreRender@XRootWindow@@QAEXPAVUCanvas@@@Z
    ?PreRenderWindows@APlayerPawnExt@@UAEXPAVUCanvas@@@Z
    ?PressButton@XButtonWindow@@UAEXW4EInputKey@@@Z
    ?PressButton@XToggleWindow@@UAEXW4EInputKey@@@Z
    ?PrevWord@XEditWindow@@AAEHH@Z
    ?Print@XComputerWindow@@QAEXAAVFString@@H@Z
    ?PrintGraphic@XComputerWindow@@QAEXPAVUTexture@@HHHHHH@Z
    ?PrintImmediate@XComputerWindow@@QAEXAAVFString@@@Z
    ?PrintLn@XComputerWindow@@QAEXXZ
    ?Printf@XGC@@QAAXMMMMPBGZZ
    ?Process@XInputExt@@UAEHAAVFOutputDevice@@W4EInputKey@@W4EInputAction@@M@Z
    ?Process@XRootWindow@@QAEHW4EInputKey@@W4EInputAction@@M@Z
    ?ProcessCursorBlink@XComputerWindow@@IAEXM@Z
    ?ProcessDisplayBuffer@XComputerWindow@@IAEXM@Z
    ?ProcessMouseMove@XRootWindow@@QAEXXZ
    ?ProcessNewLineEvent@XComputerWindow@@IAEXXZ
    ?ProcessQueuedBuffer@XComputerWindow@@IAEXXZ
    ?ProcessScript@XWindow@@QAEXVFName@@PAXH@Z
    ?PushGC@XGC@@QAEHXZ
    ?QueryClipPreferredSize@XClipWindow@@QAEXHMPAMPAHHM01@Z
    ?QueryCursor@XWindow@@QAEPAVUTexture@@MMPAM0PAVFColor@@PAPAV2@@Z
    ?QueryGranularity@XWindow@@QAEXPAM0@Z
    ?QueryPointInWindow@XWindow@@UAEHMM@Z
    ?QueryPreferredHeight@XWindow@@QAEMM@Z
    ?QueryPreferredSize@XWindow@@QAEXHMPAMHM0@Z
    ?QueryPreferredSize@XWindow@@QAEXPAM0@Z
    ?QueryPreferredWidth@XWindow@@QAEMM@Z
    ?Raise@XWindow@@QAEXXZ
    ?RawKeyPressed@XWindow@@UAEHW4EInputKey@@W4EInputAction@@H@Z
    ?RawMouseButtonPressed@XWindow@@UAEHMMW4EInputKey@@W4EInputAction@@@Z
    ?ReadColor@XGC@@IAEXAAPBGAAVFPlane@@0@Z
    ?RecomputeIndices@XListWindow@@AAEXXZ
    ?RecomputeInitTree@XWindow@@AAEXH@Z
    ?ReconfigureChild@XClipWindow@@AAEXPAVXWindow@@HHMM@Z
    ?ReconfigureTree@XWindow@@QAEXH@Z
    ?Redo@XEditWindow@@QAEXXZ
    ?RegenerateText@XTextLogWindow@@AAEXXZ
    ?ReleaseGC@XWindow@@QAEXPAVXGC@@@Z
    ?RemoveActivateTimer@XButtonWindow@@AAEXXZ
    ?RemoveActorRef@APlayerPawnExt@@QAEXPAVAActor@@@Z
    ?RemoveActorRef@XWindow@@QAEXPAVAActor@@@Z
    ?RemoveChild@XWindow@@AAEXPAV1@@Z
    ?RemoveFlag@XFlagBase@@QAEXPAVXFlag@@@Z
    ?RemoveRow@XListWindow@@AAEXPAUXListRowData@@@Z
    ?RemoveSortColumn@XListWindow@@QAEXH@Z
    ?RemoveTabGroupFromTable@XModalWindow@@QAEXPAVXTabGroupWindow@@@Z
    ?RemoveTimer@XWindow@@QAEXH@Z
    ?RemoveWindowFromTables@XTabGroupWindow@@QAEXPAVXWindow@@@Z
    ?RenderFrame@XViewportWindow@@MAEXPAVURenderBase@@PAUFSceneNode@@@Z
    ?ReplaceText@XEditWindow@@AAEXPBGHH@Z
    ?ResetHeight@XWindow@@QAEXXZ
    ?ResetLines@XTextWindow@@QAEXXZ
    ?ResetMinWidth@XTextWindow@@QAEXXZ
    ?ResetQueuedBuffer@XComputerWindow@@IAEXXZ
    ?ResetRenderViewport@XRootWindow@@QAEXXZ
    ?ResetSize@XWindow@@QAEXXZ
    ?ResetSortColumns@XListWindow@@QAEXH@Z
    ?ResetThrottle@XComputerWindow@@QAEXXZ
    ?ResetUnitHeight@XClipWindow@@QAEXXZ
    ?ResetUnitSize@XClipWindow@@QAEXXZ
    ?ResetUnitWidth@XClipWindow@@QAEXXZ
    ?ResetWidth@XWindow@@QAEXXZ
    ?Resize@XWindow@@QAEXMM@Z
    ?ResizeChild@XWindow@@QAEXXZ
    ?ResizeColumns@XListWindow@@QAEXH@Z
    ?ResizeRoot@XRootWindow@@QAEXPAVUCanvas@@@Z
    ?ResortTabGroupTable@XModalWindow@@QAEXXZ
    ?ResortWindowTables@XTabGroupWindow@@QAEXXZ
    ?Resume@XComputerWindow@@QAEXXZ
    ?RootTick@XRootWindow@@AAEXM@Z
    ?RowColToPos@XEditWindow@@IAEHHH@Z
    ?RowIdToIndex@XListWindow@@QAEHH@Z
    ?RowToY@XEditWindow@@IAEMH@Z
    ?SafeDestroy@XWindow@@QAEHXZ
    ?ScaleAttributesChanged@XScaleManagerWindow@@UAEHPAVXWindow@@HHH@Z
    ?ScaleAttributesChanged@XWindow@@UAEHPAV1@HHH@Z
    ?ScalePositionChanged@XScaleManagerWindow@@UAEHPAVXWindow@@HMH@Z
    ?ScalePositionChanged@XWindow@@UAEHPAV1@HMH@Z
    ?ScaleRangeChanged@XScrollAreaWindow@@UAEHPAVXWindow@@HHMMH@Z
    ?ScaleRangeChanged@XWindow@@UAEHPAV1@HHMMH@Z
    ?Scroll@XComputerWindow@@IAEXXZ
    ?SelectAllRows@XListWindow@@QAEXH@Z
    ?SelectRow@XListWindow@@QAEXHH@Z
    ?SelectToRow@XListWindow@@QAEXHHHH@Z
    ?SensitivityChanged@XButtonWindow@@UAEXH@Z
    ?SensitivityChanged@XWindow@@UAEXH@Z
    ?Serialize@XComputerWindow@@UAEXAAVFArchive@@@Z
    ?Serialize@XEditWindow@@UAEXAAVFArchive@@@Z
    ?Serialize@XExtString@@UAEXAAVFArchive@@@Z
    ?Serialize@XGameEngineExt@@UAEXAAVFArchive@@@Z
    ?Serialize@XLargeTextWindow@@UAEXAAVFArchive@@@Z
    ?Serialize@XListWindow@@UAEXAAVFArchive@@@Z
    ?Serialize@XModalWindow@@UAEXAAVFArchive@@@Z
    ?Serialize@XRadioBoxWindow@@UAEXAAVFArchive@@@Z
    ?Serialize@XScaleWindow@@UAEXAAVFArchive@@@Z
    ?Serialize@XTabGroupWindow@@UAEXAAVFArchive@@@Z
    ?Serialize@XTextLogWindow@@UAEXAAVFArchive@@@Z
    ?Serialize@XTextWindow@@UAEXAAVFArchive@@@Z
    ?Serialize@XTileWindow@@UAEXAAVFArchive@@@Z
    ?Serialize@XViewportWindow@@UAEXAAVFArchive@@@Z
    ?SetAcceleratorKey@XWindow@@QAEXG@Z
    ?SetAcceleratorText@XWindow@@QAEXPBG@Z
    ?SetAcceleratorWindows@XModalWindow@@AAEXPAVXWindow@@@Z
    ?SetActivateDelay@XButtonWindow@@QAEXM@Z
    ?SetAlignments@XGC@@QAEXW4EHAlign@@W4EVAlign@@@Z
    ?SetBackground@XWindow@@QAEXPAVUTexture@@@Z
    ?SetBackgroundSmoothing@XWindow@@QAEXH@Z
    ?SetBackgroundStretching@XWindow@@QAEXH@Z
    ?SetBackgroundStyle@XWindow@@QAEXE@Z
    ?SetBackgroundTextures@XComputerWindow@@QAEXPAVUTexture@@00000@Z
    ?SetBaselineData@XGC@@QAEXMM@Z
    ?SetBaselineData@XWindow@@QAEXMM@Z
    ?SetBoldFont@XGC@@QAEXPAVUFont@@@Z
    ?SetBoldFont@XWindow@@QAEXPAVUFont@@@Z
    ?SetBool@XFlagBase@@QAEHVFName@@HHH@Z
    ?SetBorderMargins@XBorderWindow@@QAEXMMMM@Z
    ?SetBorderPattern@XScaleWindow@@QAEXPAVUTexture@@@Z
    ?SetBorders@XBorderWindow@@QAEXPAVUTexture@@00000000@Z
    ?SetButtonColors@XButtonWindow@@QAEXVFColor@@00000@Z
    ?SetButtonSounds@XButtonWindow@@QAEXPAVUSound@@0@Z
    ?SetButtonTextures@XButtonWindow@@QAEXPAVUTexture@@00000@Z
    ?SetByte@XFlagBase@@QAEHVFName@@EHH@Z
    ?SetCanvas@XGC@@QAEXPAVUCanvas@@@Z
    ?SetCheckboxColor@XCheckboxWindow@@QAEXVFColor@@@Z
    ?SetCheckboxSpacing@XCheckboxWindow@@QAEXM@Z
    ?SetCheckboxStyle@XCheckboxWindow@@QAEXE@Z
    ?SetCheckboxTextures@XCheckboxWindow@@QAEXPAVUTexture@@0MM@Z
    ?SetChildAlignments@XTileWindow@@QAEXW4EHAlign@@W4EVAlign@@@Z
    ?SetChildPosition@XClipWindow@@QAEXHH@Z
    ?SetChildVisibility@XWindow@@QAEXH@Z
    ?SetClientData@XListWindow@@QAEXHH@Z
    ?SetClientObject@XWindow@@QAEXPAVUObject@@@Z
    ?SetClipRect@XGC@@QAEXAAUXClipRect@@@Z
    ?SetColumnAlignment@XListWindow@@QAEXHW4EHAlign@@@Z
    ?SetColumnColor@XListWindow@@QAEXHVFColor@@@Z
    ?SetColumnFont@XListWindow@@QAEXHPAVUFont@@@Z
    ?SetColumnTitle@XListWindow@@QAEXHPBG@Z
    ?SetColumnType@XListWindow@@QAEXHW4EColumnType@@PBG@Z
    ?SetColumnWidth@XListWindow@@QAEXHM@Z
    ?SetComputerSoundVolume@XComputerWindow@@IAEXM@Z
    ?SetConfiguration@XWindow@@QAEXMMMM@Z
    ?SetCursorBlinkSpeed@XComputerWindow@@QAEXM@Z
    ?SetCursorColor@XComputerWindow@@QAEXVFColor@@@Z
    ?SetCursorPoint@XEditWindow@@AAEXHH@Z
    ?SetCursorPos@XWindow@@QAEXMM@Z
    ?SetCursorRow@XEditWindow@@AAEXHH@Z
    ?SetCursorTexture@XComputerWindow@@QAEXPAVUTexture@@HH@Z
    ?SetDefaultCursor@XWindow@@QAEXPAVUTexture@@0MMVFColor@@@Z
    ?SetDefaultEditCursor@XRootWindow@@QAEXPAVUTexture@@@Z
    ?SetDefaultExpiration@XFlagBase@@QAEXH@Z
    ?SetDefaultMovementCursors@XRootWindow@@QAEXPAVUTexture@@0000@Z
    ?SetDefaultTexture@XViewportWindow@@QAEXPAVUTexture@@VFColor@@@Z
    ?SetDelimiter@XListWindow@@QAEXG@Z
    ?SetDirections@XTileWindow@@QAEXW4EHDirection@@W4EVDirection@@@Z
    ?SetEditCursor@XEditWindow@@QAEXPAVUTexture@@0VFColor@@@Z
    ?SetEditSounds@XEditWindow@@QAEXPAVUSound@@000@Z
    ?SetEnumeration@XScaleWindow@@QAEXHPBG@Z
    ?SetExpiration@XFlag@@QAEXH@Z
    ?SetExpiration@XFlagBase@@QAEXVFName@@EH@Z
    ?SetFOVAngle@XViewportWindow@@QAEXM@Z
    ?SetFadeSpeed@XComputerWindow@@QAEXM@Z
    ?SetField@XListWindow@@QAEXHHPBG@Z
    ?SetFieldByString@XListWindow@@AAEXPAUXListRowData@@HPBG@Z
    ?SetFieldByValue@XListWindow@@AAEXPAUXListRowData@@HM@Z
    ?SetFieldMargins@XListWindow@@QAEXMM@Z
    ?SetFieldValue@XListWindow@@QAEXHHM@Z
    ?SetFloat@XFlagBase@@QAEHVFName@@MHH@Z
    ?SetFocusColor@XListWindow@@QAEXVFColor@@@Z
    ?SetFocusRow@XListWindow@@QAEXHHH@Z
    ?SetFocusSounds@XWindow@@QAEXPAVUSound@@0@Z
    ?SetFocusTexture@XListWindow@@QAEXPAVUTexture@@@Z
    ?SetFocusThickness@XListWindow@@QAEXM@Z
    ?SetFocusWindow@XWindow@@QAEHPAV1@@Z
    ?SetFont@XGC@@QAEXPAVUFont@@@Z
    ?SetFont@XWindow@@QAEXPAVUFont@@@Z
    ?SetFonts@XGC@@QAEXPAVUFont@@0@Z
    ?SetFonts@XWindow@@QAEXPAVUFont@@0@Z
    ?SetHeight@XWindow@@QAEXM@Z
    ?SetHighlightColor@XListWindow@@QAEXVFColor@@@Z
    ?SetHighlightTextColor@XListWindow@@QAEXVFColor@@@Z
    ?SetHighlightTexture@XListWindow@@QAEXPAVUTexture@@@Z
    ?SetHorizontalAlignment@XGC@@QAEXW4EHAlign@@@Z
    ?SetHorizontalWindowAlignment@XWindow@@QAEXW4EHAlign@@M@Z
    ?SetHorizontalWindowAlignment@XWindow@@QAEXW4EHAlign@@MM@Z
    ?SetHotKeyColumn@XListWindow@@QAEXH@Z
    ?SetInsertionPoint@XEditWindow@@QAEXHH@Z
    ?SetInsertionPointBlinkRate@XEditWindow@@QAEXMM@Z
    ?SetInsertionPointTexture@XEditWindow@@QAEXPAVUTexture@@VFColor@@@Z
    ?SetInsertionPointType@XEditWindow@@QAEXW4EInsertionPointType@@MM@Z
    ?SetInt@XFlagBase@@QAEHVFName@@HHH@Z
    ?SetLines@XTextWindow@@QAEXHH@Z
    ?SetListSounds@XListWindow@@QAEXPAVUSound@@0@Z
    ?SetMajorSpacing@XTileWindow@@QAEXM@Z
    ?SetManagerAlignments@XScaleManagerWindow@@QAEXW4EHAlign@@W4EVAlign@@@Z
    ?SetManagerMargins@XScaleManagerWindow@@QAEXMM@Z
    ?SetManagerSpacing@XScaleManagerWindow@@QAEXM@Z
    ?SetMargins@XScrollAreaWindow@@QAEXMM@Z
    ?SetMargins@XTileWindow@@QAEXMM@Z
    ?SetMaxLines@XTextWindow@@QAEXH@Z
    ?SetMaxSize@XEditWindow@@QAEXH@Z
    ?SetMaxUndos@XEditWindow@@QAEXH@Z
    ?SetMinLines@XTextWindow@@QAEXH@Z
    ?SetMinWidth@XTextWindow@@QAEXM@Z
    ?SetMinorSpacing@XTileWindow@@QAEXM@Z
    ?SetMouseDelta@APlayerPawnExt@@QAEHMM@Z
    ?SetMouseDelta@XRootWindow@@QAEHMM@Z
    ?SetMouseFocusMode@XModalWindow@@QAEXW4EMouseFocusMode@@@Z
    ?SetMousePosition@APlayerPawnExt@@QAEHMM@Z
    ?SetMousePosition@XRootWindow@@QAEHMM@Z
    ?SetMoveCursors@XBorderWindow@@QAEXPAVUTexture@@0000@Z
    ?SetMultipliers@XGC@@QAEXHH@Z
    ?SetName@XFlagBase@@QAEHVFName@@0HH@Z
    ?SetNormalFont@XGC@@QAEXPAVUFont@@@Z
    ?SetNormalFont@XWindow@@QAEXPAVUFont@@@Z
    ?SetNumColumns@XListWindow@@QAEXH@Z
    ?SetNumTicks@XScaleWindow@@QAEXH@Z
    ?SetOrder@XTileWindow@@QAEXW4EOrder@@@Z
    ?SetOrientation@XScaleManagerWindow@@QAEXW4EOrientation@@@Z
    ?SetOrientation@XScaleWindow@@QAEXW4EOrientation@@@Z
    ?SetOrientation@XTileWindow@@QAEXW4EOrientation@@@Z
    ?SetOrigin@XClipRect@@QAEXMM@Z
    ?SetPolyFlags@XGC@@QAEXK@Z
    ?SetPos@XWindow@@QAEXMM@Z
    ?SetRanges@XScaleWindow@@QAEXHH@Z
    ?SetRawBackground@XRootWindow@@QAEXPAVUTexture@@VFColor@@@Z
    ?SetRawBackgroundSize@XRootWindow@@QAEXMM@Z
    ?SetRelativeLocation@XViewportWindow@@QAEXVFVector@@@Z
    ?SetRelativeRotation@XViewportWindow@@QAEXVFRotator@@@Z
    ?SetRenderViewport@XRootWindow@@QAEXMMMM@Z
    ?SetRepeatRates@XScaleWindow@@QAEXMM@Z
    ?SetRootCursorPos@XRootWindow@@QAEXMM@Z
    ?SetRotation@XViewportWindow@@QAEXVFRotator@@@Z
    ?SetRotator@XFlagBase@@QAEHVFName@@VFRotator@@HH@Z
    ?SetRow@XListWindow@@QAEXHHHH@Z
    ?SetScale@XScaleManagerWindow@@QAEXPAVXScaleWindow@@@Z
    ?SetScaleBorder@XScaleWindow@@QAEXMVFColor@@@Z
    ?SetScaleButtons@XScaleManagerWindow@@QAEXPAVXButtonWindow@@0@Z
    ?SetScaleColor@XScaleWindow@@QAEXVFColor@@@Z
    ?SetScaleMargins@XScaleWindow@@QAEXMM@Z
    ?SetScaleSounds@XScaleWindow@@QAEXPAVUSound@@00@Z
    ?SetScaleStyle@XScaleWindow@@QAEXE@Z
    ?SetScaleTexture@XScaleWindow@@QAEXPAVUTexture@@MMMM@Z
    ?SetScrollbarDistance@XScrollAreaWindow@@QAEXM@Z
    ?SetSelectability@XWindow@@QAEXH@Z
    ?SetSelectedArea@XEditWindow@@QAEXHH@Z
    ?SetSelectedAreaTextColor@XEditWindow@@QAEXVFColor@@@Z
    ?SetSelectedAreaTexture@XEditWindow@@QAEXPAVUTexture@@VFColor@@@Z
    ?SetSensitivity@XWindow@@QAEXH@Z
    ?SetSize@XWindow@@QAEXMM@Z
    ?SetSnapshotSize@XRootWindow@@QAEXMM@Z
    ?SetSortColumn@XListWindow@@QAEXHHH@Z
    ?SetSoundVolume@XWindow@@QAEXM@Z
    ?SetStyle@XGC@@QAEXE@Z
    ?SetText@XEditWindow@@UAEXPBG@Z
    ?SetText@XExtString@@UAEXPBG@Z
    ?SetText@XLargeTextWindow@@UAEXPBG@Z
    ?SetText@XTextWindow@@UAEXPBG@Z
    ?SetTextAlignments@XTextWindow@@QAEXW4EHAlign@@W4EVAlign@@@Z
    ?SetTextChangedFlag@XEditWindow@@QAEXH@Z
    ?SetTextColor@XComputerWindow@@QAEXVFColor@@@Z
    ?SetTextColor@XGC@@QAEXVFColor@@@Z
    ?SetTextColor@XWindow@@QAEXVFColor@@@Z
    ?SetTextColors@XButtonWindow@@QAEXVFColor@@00000@Z
    ?SetTextFont@XComputerWindow@@QAEXPAVUFont@@HHVFColor@@@Z
    ?SetTextMargins@XTextWindow@@QAEXMM@Z
    ?SetTextPosition@XComputerWindow@@QAEXHH@Z
    ?SetTextSize@XComputerWindow@@QAEXHH@Z
    ?SetTextSound@XComputerWindow@@QAEXPAVUSound@@@Z
    ?SetTextTimeout@XTextLogWindow@@QAEXM@Z
    ?SetTextTiming@XComputerWindow@@QAEXM@Z
    ?SetTextVSpacing@XGC@@QAEXM@Z
    ?SetTextWindowPosition@XComputerWindow@@QAEXHH@Z
    ?SetThrottle@XComputerWindow@@QAEXM@Z
    ?SetThumbBorder@XScaleWindow@@QAEXMVFColor@@@Z
    ?SetThumbCaps@XScaleWindow@@QAEXPAVUTexture@@0MMMM@Z
    ?SetThumbColor@XScaleWindow@@QAEXVFColor@@@Z
    ?SetThumbSpan@XScaleWindow@@QAEXH@Z
    ?SetThumbStep@XScaleWindow@@QAEXH@Z
    ?SetThumbStyle@XScaleWindow@@QAEXE@Z
    ?SetThumbTexture@XScaleWindow@@QAEXPAVUTexture@@MM@Z
    ?SetTickColor@XScaleWindow@@QAEXVFColor@@@Z
    ?SetTickPosition@XScaleWindow@@QAEXH@Z
    ?SetTickStyle@XScaleWindow@@QAEXE@Z
    ?SetTickTexture@XScaleWindow@@QAEXPAVUTexture@@HMM@Z
    ?SetTileColor@XGC@@QAEXVFColor@@@Z
    ?SetTileColor@XWindow@@QAEXVFColor@@@Z
    ?SetToggle@XToggleWindow@@QAEXH@Z
    ?SetToggleSounds@XToggleWindow@@QAEXPAVUSound@@0@Z
    ?SetTypingSound@XComputerWindow@@QAEXPAVUSound@@@Z
    ?SetTypingSoundVolume@XComputerWindow@@IAEXM@Z
    ?SetUnitHeight@XClipWindow@@QAEXH@Z
    ?SetUnitSize@XClipWindow@@QAEXHH@Z
    ?SetUnitWidth@XClipWindow@@QAEXH@Z
    ?SetValue@XFlag@@UAEXPAX@Z
    ?SetValue@XFlagBool@@QAEXH@Z
    ?SetValue@XFlagBool@@UAEXPAX@Z
    ?SetValue@XFlagByte@@QAEXE@Z
    ?SetValue@XFlagByte@@UAEXPAX@Z
    ?SetValue@XFlagFloat@@QAEXM@Z
    ?SetValue@XFlagFloat@@UAEXPAX@Z
    ?SetValue@XFlagInt@@QAEXH@Z
    ?SetValue@XFlagInt@@UAEXPAX@Z
    ?SetValue@XFlagName@@QAEXVFName@@@Z
    ?SetValue@XFlagName@@UAEXPAX@Z
    ?SetValue@XFlagRotator@@QAEXVFRotator@@@Z
    ?SetValue@XFlagRotator@@UAEXPAX@Z
    ?SetValue@XFlagVector@@QAEXVFVector@@@Z
    ?SetValue@XFlagVector@@UAEXPAX@Z
    ?SetValue@XScaleWindow@@QAEXM@Z
    ?SetValueField@XScaleManagerWindow@@QAEXPAVXTextWindow@@@Z
    ?SetValueFormat@XScaleWindow@@QAEXPBG@Z
    ?SetValueRange@XScaleWindow@@QAEXMM@Z
    ?SetVector@XFlagBase@@QAEHVFName@@VFVector@@HH@Z
    ?SetVerticalAlignment@XGC@@QAEXW4EVAlign@@@Z
    ?SetVerticalSpacing@XLargeTextWindow@@QAEXM@Z
    ?SetVerticalWindowAlignment@XWindow@@QAEXW4EVAlign@@M@Z
    ?SetVerticalWindowAlignment@XWindow@@QAEXW4EVAlign@@MM@Z
    ?SetViewportActor@XViewportWindow@@QAEXPAVAActor@@HH@Z
    ?SetViewportLocation@XViewportWindow@@QAEXVFVector@@H@Z
    ?SetVisibility@XWindow@@QAEXH@Z
    ?SetVisibilitySounds@XWindow@@QAEXPAVUSound@@0@Z
    ?SetWatchActor@XViewportWindow@@QAEXPAVAActor@@H@Z
    ?SetWidth@XWindow@@QAEXM@Z
    ?SetWindowAlignments@XWindow@@QAEXW4EHAlign@@W4EVAlign@@MMMM@Z
    ?SetWordWrap@XTextWindow@@QAEXH@Z
    ?SetupSortedColData@XListWindow@@AAEXXZ
    ?Show@XWindow@@QAEXXZ
    ?ShowCheckboxOnRightSide@XCheckboxWindow@@QAEXH@Z
    ?ShowCursor@XEditWindow@@AAEXXZ
    ?ShowCursor@XRootWindow@@QAEXH@Z
    ?ShowFocusRow@XListWindow@@QAEXXZ
    ?ShowTextCursor@XComputerWindow@@QAEXH@Z
    ?ShowViewportActor@XViewportWindow@@QAEXH@Z
    ?ShowWeapons@XViewportWindow@@QAEXH@Z
    ?Sort@XListWindow@@QAEXXZ
    ?SortRows@XListWindow@@AAEXXZ
    ?StartOfWord@XEditWindow@@AAEHH@Z
    ?StaticClass@APlayerPawnExt@@SAPAVUClass@@XZ
    ?StaticClass@XBorderWindow@@SAPAVUClass@@XZ
    ?StaticClass@XButtonWindow@@SAPAVUClass@@XZ
    ?StaticClass@XCheckboxWindow@@SAPAVUClass@@XZ
    ?StaticClass@XClipWindow@@SAPAVUClass@@XZ
    ?StaticClass@XComputerWindow@@SAPAVUClass@@XZ
    ?StaticClass@XEditWindow@@SAPAVUClass@@XZ
    ?StaticClass@XExtString@@SAPAVUClass@@XZ
    ?StaticClass@XExtensionObject@@SAPAVUClass@@XZ
    ?StaticClass@XFlag@@SAPAVUClass@@XZ
    ?StaticClass@XFlagBase@@SAPAVUClass@@XZ
    ?StaticClass@XFlagBool@@SAPAVUClass@@XZ
    ?StaticClass@XFlagByte@@SAPAVUClass@@XZ
    ?StaticClass@XFlagFloat@@SAPAVUClass@@XZ
    ?StaticClass@XFlagInt@@SAPAVUClass@@XZ
    ?StaticClass@XFlagName@@SAPAVUClass@@XZ
    ?StaticClass@XFlagRotator@@SAPAVUClass@@XZ
    ?StaticClass@XFlagVector@@SAPAVUClass@@XZ
    ?StaticClass@XGC@@SAPAVUClass@@XZ
    ?StaticClass@XGameEngineExt@@SAPAVUClass@@XZ
    ?StaticClass@XInputExt@@SAPAVUClass@@XZ
    ?StaticClass@XLargeTextWindow@@SAPAVUClass@@XZ
    ?StaticClass@XListWindow@@SAPAVUClass@@XZ
    ?StaticClass@XModalWindow@@SAPAVUClass@@XZ
    ?StaticClass@XRadioBoxWindow@@SAPAVUClass@@XZ
    ?StaticClass@XRootWindow@@SAPAVUClass@@XZ
    ?StaticClass@XScaleManagerWindow@@SAPAVUClass@@XZ
    ?StaticClass@XScaleWindow@@SAPAVUClass@@XZ
    ?StaticClass@XScrollAreaWindow@@SAPAVUClass@@XZ
    ?StaticClass@XTabGroupWindow@@SAPAVUClass@@XZ
    ?StaticClass@XTextLogWindow@@SAPAVUClass@@XZ
    ?StaticClass@XTextWindow@@SAPAVUClass@@XZ
    ?StaticClass@XTileWindow@@SAPAVUClass@@XZ
    ?StaticClass@XToggleWindow@@SAPAVUClass@@XZ
    ?StaticClass@XViewportWindow@@SAPAVUClass@@XZ
    ?StaticClass@XWindow@@SAPAVUClass@@XZ
    ?StretchRawBackground@XRootWindow@@QAEXH@Z
    ?StretchScaleField@XScaleManagerWindow@@QAEXH@Z
    ?StretchValueField@XScaleManagerWindow@@QAEXH@Z
    ?StringToFloat@XListWindow@@AAEMPBG@Z
    ?StyleChanged@XWindow@@UAEXXZ
    ?TextChanged@XWindow@@UAEHPAV1@H@Z
    ?Tick@XButtonWindow@@UAEXM@Z
    ?Tick@XComputerWindow@@UAEXM@Z
    ?Tick@XEditWindow@@UAEXM@Z
    ?Tick@XGameEngineExt@@UAEXM@Z
    ?Tick@XListWindow@@UAEXM@Z
    ?Tick@XModalWindow@@UAEXM@Z
    ?Tick@XRootWindow@@UAEXM@Z
    ?Tick@XScaleWindow@@UAEXM@Z
    ?Tick@XTextLogWindow@@UAEXM@Z
    ?Tick@XWindow@@UAEXM@Z
    ?TickToPixel@XScaleWindow@@AAEMH@Z
    ?TickToValue@XScaleWindow@@AAEMH@Z
    ?TickTree@XRootWindow@@AAEXPAVXWindow@@M@Z
    ?TickWindows@XRootWindow@@SAXM@Z
    ?Timer@XButtonWindow@@UAEXHHH@Z
    ?Timer@XWindow@@UAEXHHH@Z
    ?ToggleChanged@XRadioBoxWindow@@UAEHPAVXWindow@@H@Z
    ?ToggleChanged@XWindow@@UAEHPAV1@H@Z
    ?ToggleRowSelection@XListWindow@@QAEXH@Z
    ?Undo@XEditWindow@@QAEXXZ
    ?UngrabKeyboardEvents@XRootWindow@@QAEXXZ
    ?UngrabMouse@XWindow@@QAEXXZ
    ?UngrabMouseEvents@XRootWindow@@QAEXXZ
    ?UnlockWindow@XWindow@@QAEXXZ
    ?ValueToTick@XScaleWindow@@AAEHM@Z
    ?VirtualKeyPressed@XComputerWindow@@UAEHW4EInputKey@@H@Z
    ?VirtualKeyPressed@XEditWindow@@UAEHW4EInputKey@@H@Z
    ?VirtualKeyPressed@XListWindow@@UAEHW4EInputKey@@H@Z
    ?VirtualKeyPressed@XWindow@@UAEHW4EInputKey@@H@Z
    ?VisibilityChanged@XComputerWindow@@UAEXH@Z
    ?VisibilityChanged@XEditWindow@@UAEXH@Z
    ?VisibilityChanged@XListWindow@@UAEXH@Z
    ?VisibilityChanged@XModalWindow@@UAEXH@Z
    ?VisibilityChanged@XWindow@@UAEXH@Z
    ?WaitForKey@XComputerWindow@@IAEXH@Z
    ?WindowReady@XWindow@@QAEXXZ
    ?XToCol@XEditWindow@@IAEHHM@Z
    ?XYToPos@XEditWindow@@IAEHMM@Z
    ?YToRow@XEditWindow@@IAEHM@Z
    ?execActivateButton@XButtonWindow@@QAEXAAUFFrame@@QAX@Z
    ?execAddActorRef@XWindow@@QAEXAAUFFrame@@QAX@Z
    ?execAddLog@XTextLogWindow@@QAEXAAUFFrame@@QAX@Z
    ?execAddRow@XListWindow@@QAEXAAUFFrame@@QAX@Z
    ?execAddSortColumn@XListWindow@@QAEXAAUFFrame@@QAX@Z
    ?execAddTimer@XWindow@@QAEXAAUFFrame@@QAX@Z
    ?execAppendText@XExtString@@QAEXAAUFFrame@@QAX@Z
    ?execAppendText@XTextWindow@@QAEXAAUFFrame@@QAX@Z
    ?execAskParentForReconfigure@XWindow@@QAEXAAUFFrame@@QAX@Z
    ?execAskParentToShowArea@XWindow@@QAEXAAUFFrame@@QAX@Z
    ?execAutoHideScrollbars@XScrollAreaWindow@@QAEXAAUFFrame@@QAX@Z
    ?execBaseMarginsFromBorder@XBorderWindow@@QAEXAAUFFrame@@QAX@Z
    ?execCarriageReturn@XWindow@@QAEXAAUFFrame@@QAX@Z
    ?execChangeStyle@XWindow@@QAEXAAUFFrame@@QAX@Z
    ?execChangeToggle@XToggleWindow@@QAEXAAUFFrame@@QAX@Z
    ?execCheckFlag@XFlagBase@@QAEXAAUFFrame@@QAX@Z
    ?execClearAllEnumerations@XScaleWindow@@QAEXAAUFFrame@@QAX@Z
    ?execClearLine@XComputerWindow@@QAEXAAUFFrame@@QAX@Z
    ?execClearLog@XTextLogWindow@@QAEXAAUFFrame@@QAX@Z
    ?execClearScreen@XComputerWindow@@QAEXAAUFFrame@@QAX@Z
    ?execClearTextChangedFlag@XEditWindow@@QAEXAAUFFrame@@QAX@Z
    ?execClearUndo@XEditWindow@@QAEXAAUFFrame@@QAX@Z
    ?execClearZ@XGC@@QAEXAAUFFrame@@QAX@Z
    ?execClearZBuffer@XViewportWindow@@QAEXAAUFFrame@@QAX@Z
    ?execConfigureChild@XWindow@@QAEXAAUFFrame@@QAX@Z
    ?execConvertCoordinates@XWindow@@QAEXAAUFFrame@@QAX@Z
    ?execConvertScriptString@XWindow@@QAEXAAUFFrame@@QAX@Z
    ?execConvertVectorToCoordinates@XWindow@@QAEXAAUFFrame@@QAX@Z
    ?execCopy@XEditWindow@@QAEXAAUFFrame@@QAX@Z
    ?execCopyGC@XGC@@QAEXAAUFFrame@@QAX@Z
    ?execCreateIterator@XFlagBase@@QAEXAAUFFrame@@QAX@Z
    ?execCut@XEditWindow@@QAEXAAUFFrame@@QAX@Z
    ?execDeleteAllFlags@XFlagBase@@QAEXAAUFFrame@@QAX@Z
    ?execDeleteAllRows@XListWindow@@QAEXAAUFFrame@@QAX@Z
    ?execDeleteChar@XEditWindow@@QAEXAAUFFrame@@QAX@Z
    ?execDeleteExpiredFlags@XFlagBase@@QAEXAAUFFrame@@QAX@Z
    ?execDeleteFlag@XFlagBase@@QAEXAAUFFrame@@QAX@Z
    ?execDeleteRow@XListWindow@@QAEXAAUFFrame@@QAX@Z
    ?execDestroy@XWindow@@QAEXAAUFFrame@@QAX@Z
    ?execDestroyAllChildren@XWindow@@QAEXAAUFFrame@@QAX@Z
    ?execDestroyIterator@XFlagBase@@QAEXAAUFFrame@@QAX@Z
    ?execDisable@XWindow@@QAEXAAUFFrame@@QAX@Z
    ?execDrawActor@XGC@@QAEXAAUFFrame@@QAX@Z
    ?execDrawBorders@XGC@@QAEXAAUFFrame@@QAX@Z
    ?execDrawBox@XGC@@QAEXAAUFFrame@@QAX@Z
    ?execDrawIcon@XGC@@QAEXAAUFFrame@@QAX@Z
    ?execDrawPattern@XGC@@QAEXAAUFFrame@@QAX@Z
    ?execDrawStretchedTexture@XGC@@QAEXAAUFFrame@@QAX@Z
    ?execDrawText@XGC@@QAEXAAUFFrame@@QAX@Z
    ?execDrawTexture@XGC@@QAEXAAUFFrame@@QAX@Z
    ?execEnable@XWindow@@QAEXAAUFFrame@@QAX@Z
    ?execEnableAutoExpandColumns@XListWindow@@QAEXAAUFFrame@@QAX@Z
    ?execEnableAutoRepeat@XButtonWindow@@QAEXAAUFFrame@@QAX@Z
    ?execEnableAutoSort@XListWindow@@QAEXAAUFFrame@@QAX@Z
    ?execEnableDrawing@XGC@@QAEXAAUFFrame@@QAX@Z
    ?execEnableEditing@XEditWindow@@QAEXAAUFFrame@@QAX@Z
    ?execEnableHotKeys@XListWindow@@QAEXAAUFFrame@@QAX@Z
    ?execEnableMasking@XGC@@QAEXAAUFFrame@@QAX@Z
    ?execEnableModulation@XGC@@QAEXAAUFFrame@@QAX@Z
    ?execEnableMultiSelect@XListWindow@@QAEXAAUFFrame@@QAX@Z
    ?execEnablePositionalSound@XRootWindow@@QAEXAAUFFrame@@QAX@Z
    ?execEnableRendering@XRootWindow@@QAEXAAUFFrame@@QAX@Z
    ?execEnableResizing@XBorderWindow@@QAEXAAUFFrame@@QAX@Z
    ?execEnableRightMouseClick@XButtonWindow@@QAEXAAUFFrame@@QAX@Z
    ?execEnableScrolling@XScrollAreaWindow@@QAEXAAUFFrame@@QAX@Z
    ?execEnableSingleLineEditing@XEditWindow@@QAEXAAUFFrame@@QAX@Z
    ?execEnableSmoothing@XGC@@QAEXAAUFFrame@@QAX@Z
    ?execEnableSnapToUnits@XClipWindow@@QAEXAAUFFrame@@QAX@Z
    ?execEnableSpecialText@XGC@@QAEXAAUFFrame@@QAX@Z
    ?execEnableSpecialText@XWindow@@QAEXAAUFFrame@@QAX@Z
    ?execEnableStretchedScale@XScaleWindow@@QAEXAAUFFrame@@QAX@Z
    ?execEnableTextAsAccelerator@XTextWindow@@QAEXAAUFFrame@@QAX@Z
    ?execEnableTranslucency@XGC@@QAEXAAUFFrame@@QAX@Z
    ?execEnableTranslucentText@XGC@@QAEXAAUFFrame@@QAX@Z
    ?execEnableTranslucentText@XWindow@@QAEXAAUFFrame@@QAX@Z
    ?execEnableUppercaseOnly@XEditWindow@@QAEXAAUFFrame@@QAX@Z
    ?execEnableViewport@XViewportWindow@@QAEXAAUFFrame@@QAX@Z
    ?execEnableWordWrap@XComputerWindow@@QAEXAAUFFrame@@QAX@Z
    ?execEnableWordWrap@XGC@@QAEXAAUFFrame@@QAX@Z
    ?execEnableWrapping@XTileWindow@@QAEXAAUFFrame@@QAX@Z
    ?execFadeOutText@XComputerWindow@@QAEXAAUFFrame@@QAX@Z
    ?execFillParent@XTileWindow@@QAEXAAUFFrame@@QAX@Z
    ?execFindWindow@XWindow@@QAEXAAUFFrame@@QAX@Z
    ?execForceChildSize@XClipWindow@@QAEXAAUFFrame@@QAX@Z
    ?execGenerateSnapshot@XRootWindow@@QAEXAAUFFrame@@QAX@Z
    ?execGetAlignments@XGC@@QAEXAAUFFrame@@QAX@Z
    ?execGetBool@XFlagBase@@QAEXAAUFFrame@@QAX@Z
    ?execGetBottomChild@XWindow@@QAEXAAUFFrame@@QAX@Z
    ?execGetByte@XFlagBase@@QAEXAAUFFrame@@QAX@Z
    ?execGetChar@XComputerWindow@@QAEXAAUFFrame@@QAX@Z
    ?execGetChild@XClipWindow@@QAEXAAUFFrame@@QAX@Z
    ?execGetChildPosition@XClipWindow@@QAEXAAUFFrame@@QAX@Z
    ?execGetClientObject@XWindow@@QAEXAAUFFrame@@QAX@Z
    ?execGetColumnAlignment@XListWindow@@QAEXAAUFFrame@@QAX@Z
    ?execGetColumnColor@XListWindow@@QAEXAAUFFrame@@QAX@Z
    ?execGetColumnFont@XListWindow@@QAEXAAUFFrame@@QAX@Z
    ?execGetColumnTitle@XListWindow@@QAEXAAUFFrame@@QAX@Z
    ?execGetColumnType@XListWindow@@QAEXAAUFFrame@@QAX@Z
    ?execGetColumnWidth@XListWindow@@QAEXAAUFFrame@@QAX@Z
    ?execGetCursorPos@XWindow@@QAEXAAUFFrame@@QAX@Z
    ?execGetEnabledToggle@XRadioBoxWindow@@QAEXAAUFFrame@@QAX@Z
    ?execGetExpiration@XFlagBase@@QAEXAAUFFrame@@QAX@Z
    ?execGetField@XListWindow@@QAEXAAUFFrame@@QAX@Z
    ?execGetFieldMargins@XListWindow@@QAEXAAUFFrame@@QAX@Z
    ?execGetFieldValue@XListWindow@@QAEXAAUFFrame@@QAX@Z
    ?execGetFirstTextPart@XExtString@@QAEXAAUFFrame@@QAX@Z
    ?execGetFloat@XFlagBase@@QAEXAAUFFrame@@QAX@Z
    ?execGetFocusRow@XListWindow@@QAEXAAUFFrame@@QAX@Z
    ?execGetFocusWindow@XWindow@@QAEXAAUFFrame@@QAX@Z
    ?execGetFontHeight@XGC@@QAEXAAUFFrame@@QAX@Z
    ?execGetFonts@XGC@@QAEXAAUFFrame@@QAX@Z
    ?execGetGC@XWindow@@QAEXAAUFFrame@@QAX@Z
    ?execGetHigherSibling@XWindow@@QAEXAAUFFrame@@QAX@Z
    ?execGetHorizontalAlignment@XGC@@QAEXAAUFFrame@@QAX@Z
    ?execGetInput@XComputerWindow@@QAEXAAUFFrame@@QAX@Z
    ?execGetInsertionPoint@XEditWindow@@QAEXAAUFFrame@@QAX@Z
    ?execGetInt@XFlagBase@@QAEXAAUFFrame@@QAX@Z
    ?execGetLowerSibling@XWindow@@QAEXAAUFFrame@@QAX@Z
    ?execGetModalWindow@XWindow@@QAEXAAUFFrame@@QAX@Z
    ?execGetName@XFlagBase@@QAEXAAUFFrame@@QAX@Z
    ?execGetNextFlag@XFlagBase@@QAEXAAUFFrame@@QAX@Z
    ?execGetNextFlagName@XFlagBase@@QAEXAAUFFrame@@QAX@Z
    ?execGetNextTextPart@XExtString@@QAEXAAUFFrame@@QAX@Z
    ?execGetNumColumns@XListWindow@@QAEXAAUFFrame@@QAX@Z
    ?execGetNumRows@XListWindow@@QAEXAAUFFrame@@QAX@Z
    ?execGetNumSelectedRows@XListWindow@@QAEXAAUFFrame@@QAX@Z
    ?execGetNumTicks@XScaleWindow@@QAEXAAUFFrame@@QAX@Z
    ?execGetPageSize@XListWindow@@QAEXAAUFFrame@@QAX@Z
    ?execGetParent@XWindow@@QAEXAAUFFrame@@QAX@Z
    ?execGetPlayerPawn@XWindow@@QAEXAAUFFrame@@QAX@Z
    ?execGetRootWindow@XWindow@@QAEXAAUFFrame@@QAX@Z
    ?execGetRotator@XFlagBase@@QAEXAAUFFrame@@QAX@Z
    ?execGetRowClientInt@XListWindow@@QAEXAAUFFrame@@QAX@Z
    ?execGetRowClientObject@XListWindow@@QAEXAAUFFrame@@QAX@Z
    ?execGetSelectedArea@XEditWindow@@QAEXAAUFFrame@@QAX@Z
    ?execGetSelectedRow@XListWindow@@QAEXAAUFFrame@@QAX@Z
    ?execGetStyle@XGC@@QAEXAAUFFrame@@QAX@Z
    ?execGetTabGroupWindow@XWindow@@QAEXAAUFFrame@@QAX@Z
    ?execGetText@XExtString@@QAEXAAUFFrame@@QAX@Z
    ?execGetText@XTextWindow@@QAEXAAUFFrame@@QAX@Z
    ?execGetTextColor@XGC@@QAEXAAUFFrame@@QAX@Z
    ?execGetTextExtent@XGC@@QAEXAAUFFrame@@QAX@Z
    ?execGetTextLength@XExtString@@QAEXAAUFFrame@@QAX@Z
    ?execGetTextLength@XTextWindow@@QAEXAAUFFrame@@QAX@Z
    ?execGetTextPart@XExtString@@QAEXAAUFFrame@@QAX@Z
    ?execGetTextPart@XTextWindow@@QAEXAAUFFrame@@QAX@Z
    ?execGetTextVSpacing@XGC@@QAEXAAUFFrame@@QAX@Z
    ?execGetThrottle@XComputerWindow@@QAEXAAUFFrame@@QAX@Z
    ?execGetThumbSpan@XScaleWindow@@QAEXAAUFFrame@@QAX@Z
    ?execGetTickOffset@XWindow@@QAEXAAUFFrame@@QAX@Z
    ?execGetTickPosition@XScaleWindow@@QAEXAAUFFrame@@QAX@Z
    ?execGetTileColor@XGC@@QAEXAAUFFrame@@QAX@Z
    ?execGetToggle@XToggleWindow@@QAEXAAUFFrame@@QAX@Z
    ?execGetTopChild@XWindow@@QAEXAAUFFrame@@QAX@Z
    ?execGetUnitSize@XClipWindow@@QAEXAAUFFrame@@QAX@Z
    ?execGetValue@XScaleWindow@@QAEXAAUFFrame@@QAX@Z
    ?execGetValueString@XScaleWindow@@QAEXAAUFFrame@@QAX@Z
    ?execGetValues@XScaleWindow@@QAEXAAUFFrame@@QAX@Z
    ?execGetVector@XFlagBase@@QAEXAAUFFrame@@QAX@Z
    ?execGetVerticalAlignment@XGC@@QAEXAAUFFrame@@QAX@Z
    ?execGrabMouse@XWindow@@QAEXAAUFFrame@@QAX@Z
    ?execHasTextChanged@XEditWindow@@QAEXAAUFFrame@@QAX@Z
    ?execHide@XWindow@@QAEXAAUFFrame@@QAX@Z
    ?execHideColumn@XListWindow@@QAEXAAUFFrame@@QAX@Z
    ?execIndexToRowId@XListWindow@@QAEXAAUFFrame@@QAX@Z
    ?execInitRootWindow@APlayerPawnExt@@QAEXAAUFFrame@@QAX@Z
    ?execInsertText@XEditWindow@@QAEXAAUFFrame@@QAX@Z
    ?execIntersect@XGC@@QAEXAAUFFrame@@QAX@Z
    ?execIsActorValid@XWindow@@QAEXAAUFFrame@@QAX@Z
    ?execIsAutoExpandColumnsEnabled@XListWindow@@QAEXAAUFFrame@@QAX@Z
    ?execIsAutoSortEnabled@XListWindow@@QAEXAAUFFrame@@QAX@Z
    ?execIsBufferFlushed@XComputerWindow@@QAEXAAUFFrame@@QAX@Z
    ?execIsColumnHidden@XListWindow@@QAEXAAUFFrame@@QAX@Z
    ?execIsCurrentModal@XModalWindow@@QAEXAAUFFrame@@QAX@Z
    ?execIsDrawingEnabled@XGC@@QAEXAAUFFrame@@QAX@Z
    ?execIsEditingEnabled@XEditWindow@@QAEXAAUFFrame@@QAX@Z
    ?execIsFocusWindow@XWindow@@QAEXAAUFFrame@@QAX@Z
    ?execIsKeyDown@XWindow@@QAEXAAUFFrame@@QAX@Z
    ?execIsMaskingEnabled@XGC@@QAEXAAUFFrame@@QAX@Z
    ?execIsModulationEnabled@XGC@@QAEXAAUFFrame@@QAX@Z
    ?execIsMultiSelectEnabled@XListWindow@@QAEXAAUFFrame@@QAX@Z
    ?execIsPaused@XComputerWindow@@QAEXAAUFFrame@@QAX@Z
    ?execIsPointInWindow@XWindow@@QAEXAAUFFrame@@QAX@Z
    ?execIsPositionalSoundEnabled@XRootWindow@@QAEXAAUFFrame@@QAX@Z
    ?execIsRenderingEnabled@XRootWindow@@QAEXAAUFFrame@@QAX@Z
    ?execIsRowSelected@XListWindow@@QAEXAAUFFrame@@QAX@Z
    ?execIsSensitive@XWindow@@QAEXAAUFFrame@@QAX@Z
    ?execIsSingleLineEditingEnabled@XEditWindow@@QAEXAAUFFrame@@QAX@Z
    ?execIsSmoothingEnabled@XGC@@QAEXAAUFFrame@@QAX@Z
    ?execIsSpecialTextEnabled@XGC@@QAEXAAUFFrame@@QAX@Z
    ?execIsTranslucencyEnabled@XGC@@QAEXAAUFFrame@@QAX@Z
    ?execIsTranslucentTextEnabled@XGC@@QAEXAAUFFrame@@QAX@Z
    ?execIsVisible@XWindow@@QAEXAAUFFrame@@QAX@Z
    ?execIsWordWrapEnabled@XGC@@QAEXAAUFFrame@@QAX@Z
    ?execLockMouse@XRootWindow@@QAEXAAUFFrame@@QAX@Z
    ?execLower@XWindow@@QAEXAAUFFrame@@QAX@Z
    ?execMakeHeightsEqual@XTileWindow@@QAEXAAUFFrame@@QAX@Z
    ?execMakeWidthsEqual@XTileWindow@@QAEXAAUFFrame@@QAX@Z
    ?execModifyRow@XListWindow@@QAEXAAUFFrame@@QAX@Z
    ?execMoveFocusDown@XWindow@@QAEXAAUFFrame@@QAX@Z
    ?execMoveFocusLeft@XWindow@@QAEXAAUFFrame@@QAX@Z
    ?execMoveFocusRight@XWindow@@QAEXAAUFFrame@@QAX@Z
    ?execMoveFocusUp@XWindow@@QAEXAAUFFrame@@QAX@Z
    ?execMoveInsertionPoint@XEditWindow@@QAEXAAUFFrame@@QAX@Z
    ?execMoveRow@XListWindow@@QAEXAAUFFrame@@QAX@Z
    ?execMoveTabGroupNext@XWindow@@QAEXAAUFFrame@@QAX@Z
    ?execMoveTabGroupPrev@XWindow@@QAEXAAUFFrame@@QAX@Z
    ?execMoveThumb@XScaleWindow@@QAEXAAUFFrame@@QAX@Z
    ?execNewChild@XWindow@@QAEXAAUFFrame@@QAX@Z
    ?execPaste@XEditWindow@@QAEXAAUFFrame@@QAX@Z
    ?execPause@XComputerWindow@@QAEXAAUFFrame@@QAX@Z
    ?execPauseLog@XTextLogWindow@@QAEXAAUFFrame@@QAX@Z
    ?execPlayEditSound@XEditWindow@@QAEXAAUFFrame@@QAX@Z
    ?execPlayListSound@XListWindow@@QAEXAAUFFrame@@QAX@Z
    ?execPlayScaleSound@XScaleWindow@@QAEXAAUFFrame@@QAX@Z
    ?execPlaySound@XWindow@@QAEXAAUFFrame@@QAX@Z
    ?execPlaySoundLater@XComputerWindow@@QAEXAAUFFrame@@QAX@Z
    ?execPopGC@XGC@@QAEXAAUFFrame@@QAX@Z
    ?execPostRenderWindows@APlayerPawnExt@@QAEXAAUFFrame@@QAX@Z
    ?execPreRenderWindows@APlayerPawnExt@@QAEXAAUFFrame@@QAX@Z
    ?execPressButton@XButtonWindow@@QAEXAAUFFrame@@QAX@Z
    ?execPrint@XComputerWindow@@QAEXAAUFFrame@@QAX@Z
    ?execPrintGraphic@XComputerWindow@@QAEXAAUFFrame@@QAX@Z
    ?execPrintLn@XComputerWindow@@QAEXAAUFFrame@@QAX@Z
    ?execPushGC@XGC@@QAEXAAUFFrame@@QAX@Z
    ?execQueryGranularity@XWindow@@QAEXAAUFFrame@@QAX@Z
    ?execQueryPreferredHeight@XWindow@@QAEXAAUFFrame@@QAX@Z
    ?execQueryPreferredSize@XWindow@@QAEXAAUFFrame@@QAX@Z
    ?execQueryPreferredWidth@XWindow@@QAEXAAUFFrame@@QAX@Z
    ?execRaise@XWindow@@QAEXAAUFFrame@@QAX@Z
    ?execRedo@XEditWindow@@QAEXAAUFFrame@@QAX@Z
    ?execReleaseGC@XWindow@@QAEXAAUFFrame@@QAX@Z
    ?execRemoveActorRef@XWindow@@QAEXAAUFFrame@@QAX@Z
    ?execRemoveSortColumn@XListWindow@@QAEXAAUFFrame@@QAX@Z
    ?execRemoveTimer@XWindow@@QAEXAAUFFrame@@QAX@Z
    ?execResetHeight@XWindow@@QAEXAAUFFrame@@QAX@Z
    ?execResetLines@XTextWindow@@QAEXAAUFFrame@@QAX@Z
    ?execResetMinWidth@XTextWindow@@QAEXAAUFFrame@@QAX@Z
    ?execResetRenderViewport@XRootWindow@@QAEXAAUFFrame@@QAX@Z
    ?execResetSize@XWindow@@QAEXAAUFFrame@@QAX@Z
    ?execResetSortColumns@XListWindow@@QAEXAAUFFrame@@QAX@Z
    ?execResetThrottle@XComputerWindow@@QAEXAAUFFrame@@QAX@Z
    ?execResetUnitHeight@XClipWindow@@QAEXAAUFFrame@@QAX@Z
    ?execResetUnitSize@XClipWindow@@QAEXAAUFFrame@@QAX@Z
    ?execResetUnitWidth@XClipWindow@@QAEXAAUFFrame@@QAX@Z
    ?execResetWidth@XWindow@@QAEXAAUFFrame@@QAX@Z
    ?execResizeChild@XWindow@@QAEXAAUFFrame@@QAX@Z
    ?execResizeColumns@XListWindow@@QAEXAAUFFrame@@QAX@Z
    ?execResume@XComputerWindow@@QAEXAAUFFrame@@QAX@Z
    ?execRowIdToIndex@XListWindow@@QAEXAAUFFrame@@QAX@Z
    ?execSelectAllRows@XListWindow@@QAEXAAUFFrame@@QAX@Z
    ?execSelectRow@XListWindow@@QAEXAAUFFrame@@QAX@Z
    ?execSelectToRow@XListWindow@@QAEXAAUFFrame@@QAX@Z
    ?execSetAcceleratorText@XWindow@@QAEXAAUFFrame@@QAX@Z
    ?execSetActivateDelay@XButtonWindow@@QAEXAAUFFrame@@QAX@Z
    ?execSetAlignments@XGC@@QAEXAAUFFrame@@QAX@Z
    ?execSetAreaMargins@XScrollAreaWindow@@QAEXAAUFFrame@@QAX@Z
    ?execSetBackground@XWindow@@QAEXAAUFFrame@@QAX@Z
    ?execSetBackgroundSmoothing@XWindow@@QAEXAAUFFrame@@QAX@Z
    ?execSetBackgroundStretching@XWindow@@QAEXAAUFFrame@@QAX@Z
    ?execSetBackgroundStyle@XWindow@@QAEXAAUFFrame@@QAX@Z
    ?execSetBackgroundTextures@XComputerWindow@@QAEXAAUFFrame@@QAX@Z
    ?execSetBaselineData@XGC@@QAEXAAUFFrame@@QAX@Z
    ?execSetBaselineData@XWindow@@QAEXAAUFFrame@@QAX@Z
    ?execSetBoldFont@XGC@@QAEXAAUFFrame@@QAX@Z
    ?execSetBoldFont@XWindow@@QAEXAAUFFrame@@QAX@Z
    ?execSetBool@XFlagBase@@QAEXAAUFFrame@@QAX@Z
    ?execSetBorderMargins@XBorderWindow@@QAEXAAUFFrame@@QAX@Z
    ?execSetBorderPattern@XScaleWindow@@QAEXAAUFFrame@@QAX@Z
    ?execSetBorders@XBorderWindow@@QAEXAAUFFrame@@QAX@Z
    ?execSetButtonColors@XButtonWindow@@QAEXAAUFFrame@@QAX@Z
    ?execSetButtonSounds@XButtonWindow@@QAEXAAUFFrame@@QAX@Z
    ?execSetButtonTextures@XButtonWindow@@QAEXAAUFFrame@@QAX@Z
    ?execSetByte@XFlagBase@@QAEXAAUFFrame@@QAX@Z
    ?execSetCheckboxColor@XCheckboxWindow@@QAEXAAUFFrame@@QAX@Z
    ?execSetCheckboxSpacing@XCheckboxWindow@@QAEXAAUFFrame@@QAX@Z
    ?execSetCheckboxStyle@XCheckboxWindow@@QAEXAAUFFrame@@QAX@Z
    ?execSetCheckboxTextures@XCheckboxWindow@@QAEXAAUFFrame@@QAX@Z
    ?execSetChildAlignments@XTileWindow@@QAEXAAUFFrame@@QAX@Z
    ?execSetChildPosition@XClipWindow@@QAEXAAUFFrame@@QAX@Z
    ?execSetChildVisibility@XWindow@@QAEXAAUFFrame@@QAX@Z
    ?execSetClientObject@XWindow@@QAEXAAUFFrame@@QAX@Z
    ?execSetColumnAlignment@XListWindow@@QAEXAAUFFrame@@QAX@Z
    ?execSetColumnColor@XListWindow@@QAEXAAUFFrame@@QAX@Z
    ?execSetColumnFont@XListWindow@@QAEXAAUFFrame@@QAX@Z
    ?execSetColumnTitle@XListWindow@@QAEXAAUFFrame@@QAX@Z
    ?execSetColumnType@XListWindow@@QAEXAAUFFrame@@QAX@Z
    ?execSetColumnWidth@XListWindow@@QAEXAAUFFrame@@QAX@Z
    ?execSetComputerSoundVolume@XComputerWindow@@QAEXAAUFFrame@@QAX@Z
    ?execSetConfiguration@XWindow@@QAEXAAUFFrame@@QAX@Z
    ?execSetCursorBlinkSpeed@XComputerWindow@@QAEXAAUFFrame@@QAX@Z
    ?execSetCursorColor@XComputerWindow@@QAEXAAUFFrame@@QAX@Z
    ?execSetCursorPos@XWindow@@QAEXAAUFFrame@@QAX@Z
    ?execSetCursorTexture@XComputerWindow@@QAEXAAUFFrame@@QAX@Z
    ?execSetDefaultCursor@XWindow@@QAEXAAUFFrame@@QAX@Z
    ?execSetDefaultEditCursor@XRootWindow@@QAEXAAUFFrame@@QAX@Z
    ?execSetDefaultExpiration@XFlagBase@@QAEXAAUFFrame@@QAX@Z
    ?execSetDefaultMovementCursors@XRootWindow@@QAEXAAUFFrame@@QAX@Z
    ?execSetDefaultTexture@XViewportWindow@@QAEXAAUFFrame@@QAX@Z
    ?execSetDelimiter@XListWindow@@QAEXAAUFFrame@@QAX@Z
    ?execSetDirections@XTileWindow@@QAEXAAUFFrame@@QAX@Z
    ?execSetEditCursor@XEditWindow@@QAEXAAUFFrame@@QAX@Z
    ?execSetEditSounds@XEditWindow@@QAEXAAUFFrame@@QAX@Z
    ?execSetEnumeration@XScaleWindow@@QAEXAAUFFrame@@QAX@Z
    ?execSetExpiration@XFlagBase@@QAEXAAUFFrame@@QAX@Z
    ?execSetFOVAngle@XViewportWindow@@QAEXAAUFFrame@@QAX@Z
    ?execSetFadeSpeed@XComputerWindow@@QAEXAAUFFrame@@QAX@Z
    ?execSetField@XListWindow@@QAEXAAUFFrame@@QAX@Z
    ?execSetFieldMargins@XListWindow@@QAEXAAUFFrame@@QAX@Z
    ?execSetFieldValue@XListWindow@@QAEXAAUFFrame@@QAX@Z
    ?execSetFloat@XFlagBase@@QAEXAAUFFrame@@QAX@Z
    ?execSetFocusColor@XListWindow@@QAEXAAUFFrame@@QAX@Z
    ?execSetFocusRow@XListWindow@@QAEXAAUFFrame@@QAX@Z
    ?execSetFocusSounds@XWindow@@QAEXAAUFFrame@@QAX@Z
    ?execSetFocusTexture@XListWindow@@QAEXAAUFFrame@@QAX@Z
    ?execSetFocusThickness@XListWindow@@QAEXAAUFFrame@@QAX@Z
    ?execSetFocusWindow@XWindow@@QAEXAAUFFrame@@QAX@Z
    ?execSetFont@XGC@@QAEXAAUFFrame@@QAX@Z
    ?execSetFont@XWindow@@QAEXAAUFFrame@@QAX@Z
    ?execSetFontColor@XComputerWindow@@QAEXAAUFFrame@@QAX@Z
    ?execSetFonts@XGC@@QAEXAAUFFrame@@QAX@Z
    ?execSetFonts@XWindow@@QAEXAAUFFrame@@QAX@Z
    ?execSetHeight@XWindow@@QAEXAAUFFrame@@QAX@Z
    ?execSetHighlightColor@XListWindow@@QAEXAAUFFrame@@QAX@Z
    ?execSetHighlightTextColor@XListWindow@@QAEXAAUFFrame@@QAX@Z
    ?execSetHighlightTexture@XListWindow@@QAEXAAUFFrame@@QAX@Z
    ?execSetHorizontalAlignment@XGC@@QAEXAAUFFrame@@QAX@Z
    ?execSetHotKeyColumn@XListWindow@@QAEXAAUFFrame@@QAX@Z
    ?execSetInsertionPoint@XEditWindow@@QAEXAAUFFrame@@QAX@Z
    ?execSetInsertionPointBlinkRate@XEditWindow@@QAEXAAUFFrame@@QAX@Z
    ?execSetInsertionPointTexture@XEditWindow@@QAEXAAUFFrame@@QAX@Z
    ?execSetInsertionPointType@XEditWindow@@QAEXAAUFFrame@@QAX@Z
    ?execSetInt@XFlagBase@@QAEXAAUFFrame@@QAX@Z
    ?execSetLines@XTextWindow@@QAEXAAUFFrame@@QAX@Z
    ?execSetListSounds@XListWindow@@QAEXAAUFFrame@@QAX@Z
    ?execSetMajorSpacing@XTileWindow@@QAEXAAUFFrame@@QAX@Z
    ?execSetManagerAlignments@XScaleManagerWindow@@QAEXAAUFFrame@@QAX@Z
    ?execSetManagerMargins@XScaleManagerWindow@@QAEXAAUFFrame@@QAX@Z
    ?execSetManagerOrientation@XScaleManagerWindow@@QAEXAAUFFrame@@QAX@Z
    ?execSetManagerSpacing@XScaleManagerWindow@@QAEXAAUFFrame@@QAX@Z
    ?execSetMargins@XTileWindow@@QAEXAAUFFrame@@QAX@Z
    ?execSetMaxLines@XTextWindow@@QAEXAAUFFrame@@QAX@Z
    ?execSetMaxSize@XEditWindow@@QAEXAAUFFrame@@QAX@Z
    ?execSetMaxUndos@XEditWindow@@QAEXAAUFFrame@@QAX@Z
    ?execSetMinLines@XTextWindow@@QAEXAAUFFrame@@QAX@Z
    ?execSetMinWidth@XTextWindow@@QAEXAAUFFrame@@QAX@Z
    ?execSetMinorSpacing@XTileWindow@@QAEXAAUFFrame@@QAX@Z
    ?execSetMouseFocusMode@XModalWindow@@QAEXAAUFFrame@@QAX@Z
    ?execSetMoveCursors@XBorderWindow@@QAEXAAUFFrame@@QAX@Z
    ?execSetName@XFlagBase@@QAEXAAUFFrame@@QAX@Z
    ?execSetNormalFont@XGC@@QAEXAAUFFrame@@QAX@Z
    ?execSetNormalFont@XWindow@@QAEXAAUFFrame@@QAX@Z
    ?execSetNumColumns@XListWindow@@QAEXAAUFFrame@@QAX@Z
    ?execSetNumTicks@XScaleWindow@@QAEXAAUFFrame@@QAX@Z
    ?execSetOrder@XTileWindow@@QAEXAAUFFrame@@QAX@Z
    ?execSetOrientation@XTileWindow@@QAEXAAUFFrame@@QAX@Z
    ?execSetPos@XWindow@@QAEXAAUFFrame@@QAX@Z
    ?execSetRawBackground@XRootWindow@@QAEXAAUFFrame@@QAX@Z
    ?execSetRawBackgroundSize@XRootWindow@@QAEXAAUFFrame@@QAX@Z
    ?execSetRelativeLocation@XViewportWindow@@QAEXAAUFFrame@@QAX@Z
    ?execSetRelativeRotation@XViewportWindow@@QAEXAAUFFrame@@QAX@Z
    ?execSetRenderViewport@XRootWindow@@QAEXAAUFFrame@@QAX@Z
    ?execSetRotation@XViewportWindow@@QAEXAAUFFrame@@QAX@Z
    ?execSetRotator@XFlagBase@@QAEXAAUFFrame@@QAX@Z
    ?execSetRow@XListWindow@@QAEXAAUFFrame@@QAX@Z
    ?execSetRowClientInt@XListWindow@@QAEXAAUFFrame@@QAX@Z
    ?execSetRowClientObject@XListWindow@@QAEXAAUFFrame@@QAX@Z
    ?execSetScale@XScaleManagerWindow@@QAEXAAUFFrame@@QAX@Z
    ?execSetScaleBorder@XScaleWindow@@QAEXAAUFFrame@@QAX@Z
    ?execSetScaleButtons@XScaleManagerWindow@@QAEXAAUFFrame@@QAX@Z
    ?execSetScaleColor@XScaleWindow@@QAEXAAUFFrame@@QAX@Z
    ?execSetScaleMargins@XScaleWindow@@QAEXAAUFFrame@@QAX@Z
    ?execSetScaleOrientation@XScaleWindow@@QAEXAAUFFrame@@QAX@Z
    ?execSetScaleSounds@XScaleWindow@@QAEXAAUFFrame@@QAX@Z
    ?execSetScaleStyle@XScaleWindow@@QAEXAAUFFrame@@QAX@Z
    ?execSetScaleTexture@XScaleWindow@@QAEXAAUFFrame@@QAX@Z
    ?execSetScrollbarDistance@XScrollAreaWindow@@QAEXAAUFFrame@@QAX@Z
    ?execSetSelectability@XWindow@@QAEXAAUFFrame@@QAX@Z
    ?execSetSelectedArea@XEditWindow@@QAEXAAUFFrame@@QAX@Z
    ?execSetSelectedAreaTextColor@XEditWindow@@QAEXAAUFFrame@@QAX@Z
    ?execSetSelectedAreaTexture@XEditWindow@@QAEXAAUFFrame@@QAX@Z
    ?execSetSensitivity@XWindow@@QAEXAAUFFrame@@QAX@Z
    ?execSetSize@XWindow@@QAEXAAUFFrame@@QAX@Z
    ?execSetSnapshotSize@XRootWindow@@QAEXAAUFFrame@@QAX@Z
    ?execSetSortColumn@XListWindow@@QAEXAAUFFrame@@QAX@Z
    ?execSetSoundVolume@XWindow@@QAEXAAUFFrame@@QAX@Z
    ?execSetStyle@XGC@@QAEXAAUFFrame@@QAX@Z
    ?execSetText@XExtString@@QAEXAAUFFrame@@QAX@Z
    ?execSetText@XTextWindow@@QAEXAAUFFrame@@QAX@Z
    ?execSetTextAlignments@XTextWindow@@QAEXAAUFFrame@@QAX@Z
    ?execSetTextChangedFlag@XEditWindow@@QAEXAAUFFrame@@QAX@Z
    ?execSetTextColor@XGC@@QAEXAAUFFrame@@QAX@Z
    ?execSetTextColor@XWindow@@QAEXAAUFFrame@@QAX@Z
    ?execSetTextColors@XButtonWindow@@QAEXAAUFFrame@@QAX@Z
    ?execSetTextFont@XComputerWindow@@QAEXAAUFFrame@@QAX@Z
    ?execSetTextMargins@XTextWindow@@QAEXAAUFFrame@@QAX@Z
    ?execSetTextPosition@XComputerWindow@@QAEXAAUFFrame@@QAX@Z
    ?execSetTextSize@XComputerWindow@@QAEXAAUFFrame@@QAX@Z
    ?execSetTextSound@XComputerWindow@@QAEXAAUFFrame@@QAX@Z
    ?execSetTextTimeout@XTextLogWindow@@QAEXAAUFFrame@@QAX@Z
    ?execSetTextTiming@XComputerWindow@@QAEXAAUFFrame@@QAX@Z
    ?execSetTextVSpacing@XGC@@QAEXAAUFFrame@@QAX@Z
    ?execSetTextWindowPosition@XComputerWindow@@QAEXAAUFFrame@@QAX@Z
    ?execSetThrottle@XComputerWindow@@QAEXAAUFFrame@@QAX@Z
    ?execSetThumbBorder@XScaleWindow@@QAEXAAUFFrame@@QAX@Z
    ?execSetThumbCaps@XScaleWindow@@QAEXAAUFFrame@@QAX@Z
    ?execSetThumbColor@XScaleWindow@@QAEXAAUFFrame@@QAX@Z
    ?execSetThumbSpan@XScaleWindow@@QAEXAAUFFrame@@QAX@Z
    ?execSetThumbStep@XScaleWindow@@QAEXAAUFFrame@@QAX@Z
    ?execSetThumbStyle@XScaleWindow@@QAEXAAUFFrame@@QAX@Z
    ?execSetThumbTexture@XScaleWindow@@QAEXAAUFFrame@@QAX@Z
    ?execSetTickColor@XScaleWindow@@QAEXAAUFFrame@@QAX@Z
    ?execSetTickPosition@XScaleWindow@@QAEXAAUFFrame@@QAX@Z
    ?execSetTickStyle@XScaleWindow@@QAEXAAUFFrame@@QAX@Z
    ?execSetTickTexture@XScaleWindow@@QAEXAAUFFrame@@QAX@Z
    ?execSetTileColor@XGC@@QAEXAAUFFrame@@QAX@Z
    ?execSetTileColor@XWindow@@QAEXAAUFFrame@@QAX@Z
    ?execSetToggle@XToggleWindow@@QAEXAAUFFrame@@QAX@Z
    ?execSetToggleSounds@XToggleWindow@@QAEXAAUFFrame@@QAX@Z
    ?execSetTypingSound@XComputerWindow@@QAEXAAUFFrame@@QAX@Z
    ?execSetTypingSoundVolume@XComputerWindow@@QAEXAAUFFrame@@QAX@Z
    ?execSetUnitHeight@XClipWindow@@QAEXAAUFFrame@@QAX@Z
    ?execSetUnitSize@XClipWindow@@QAEXAAUFFrame@@QAX@Z
    ?execSetUnitWidth@XClipWindow@@QAEXAAUFFrame@@QAX@Z
    ?execSetValue@XScaleWindow@@QAEXAAUFFrame@@QAX@Z
    ?execSetValueField@XScaleManagerWindow@@QAEXAAUFFrame@@QAX@Z
    ?execSetValueFormat@XScaleWindow@@QAEXAAUFFrame@@QAX@Z
    ?execSetValueRange@XScaleWindow@@QAEXAAUFFrame@@QAX@Z
    ?execSetVector@XFlagBase@@QAEXAAUFFrame@@QAX@Z
    ?execSetVerticalAlignment@XGC@@QAEXAAUFFrame@@QAX@Z
    ?execSetVerticalSpacing@XLargeTextWindow@@QAEXAAUFFrame@@QAX@Z
    ?execSetViewportActor@XViewportWindow@@QAEXAAUFFrame@@QAX@Z
    ?execSetViewportLocation@XViewportWindow@@QAEXAAUFFrame@@QAX@Z
    ?execSetVisibilitySounds@XWindow@@QAEXAAUFFrame@@QAX@Z
    ?execSetWatchActor@XViewportWindow@@QAEXAAUFFrame@@QAX@Z
    ?execSetWidth@XWindow@@QAEXAAUFFrame@@QAX@Z
    ?execSetWindowAlignments@XWindow@@QAEXAAUFFrame@@QAX@Z
    ?execSetWordWrap@XTextWindow@@QAEXAAUFFrame@@QAX@Z
    ?execShow@XWindow@@QAEXAAUFFrame@@QAX@Z
    ?execShowCheckboxOnRightSide@XCheckboxWindow@@QAEXAAUFFrame@@QAX@Z
    ?execShowCursor@XRootWindow@@QAEXAAUFFrame@@QAX@Z
    ?execShowFocusRow@XListWindow@@QAEXAAUFFrame@@QAX@Z
    ?execShowTextCursor@XComputerWindow@@QAEXAAUFFrame@@QAX@Z
    ?execShowViewportActor@XViewportWindow@@QAEXAAUFFrame@@QAX@Z
    ?execShowWeapons@XViewportWindow@@QAEXAAUFFrame@@QAX@Z
    ?execSort@XListWindow@@QAEXAAUFFrame@@QAX@Z
    ?execStretchRawBackground@XRootWindow@@QAEXAAUFFrame@@QAX@Z
    ?execStretchScaleField@XScaleManagerWindow@@QAEXAAUFFrame@@QAX@Z
    ?execStretchValueField@XScaleManagerWindow@@QAEXAAUFFrame@@QAX@Z
    ?execStringToName@XExtensionObject@@QAEXAAUFFrame@@QAX@Z
    ?execToggleRowSelection@XListWindow@@QAEXAAUFFrame@@QAX@Z
    ?execUndo@XEditWindow@@QAEXAAUFFrame@@QAX@Z
    ?execUngrabMouse@XWindow@@QAEXAAUFFrame@@QAX@Z
    _DllMain@12
